Component: ARM Compiler 5.06 update 6 (build 750) Tool: armlink [4d35ed]

==============================================================================

Section Cross References

    startup_lpc17xx.o(STACK) refers (Special) to heapauxi.o(.text) for __use_two_region_memory
    startup_lpc17xx.o(HEAP) refers (Special) to heapauxi.o(.text) for __use_two_region_memory
    startup_lpc17xx.o(RESET) refers (Special) to heapauxi.o(.text) for __use_two_region_memory
    startup_lpc17xx.o(RESET) refers to startup_lpc17xx.o(STACK) for __initial_sp
    startup_lpc17xx.o(RESET) refers to startup_lpc17xx.o(.text) for Reset_Handler
    startup_lpc17xx.o(RESET) refers to lpc17xx_it.o(i.SysTick_Handler) for SysTick_Handler
    startup_lpc17xx.o(RESET) refers to lpc17xx_it.o(i.TIMER0_IRQHandler) for TIMER0_IRQHandler
    startup_lpc17xx.o(RESET) refers to lpc17xx_it.o(i.UART0_IRQHandler) for UART0_IRQHandler
    startup_lpc17xx.o(RESET) refers to uart.o(i.UART1_IRQHandler) for UART1_IRQHandler
    startup_lpc17xx.o(RESET) refers to lpc17xx_it.o(i.PWM1_IRQHandler) for PWM1_IRQHandler
    startup_lpc17xx.o(RESET) refers to lpc17xx_it.o(i.EINT3_IRQHandler) for EINT3_IRQHandler
    startup_lpc17xx.o(RESET) refers to usbhw.o(i.USB_IRQHandler) for USB_IRQHandler
    startup_lpc17xx.o(.text) refers (Special) to heapauxi.o(.text) for __use_two_region_memory
    startup_lpc17xx.o(.text) refers to system_lpc17xx.o(i.SystemInit) for SystemInit
    startup_lpc17xx.o(.text) refers to __main.o(!!!main) for __main
    startup_lpc17xx.o(.text) refers to startup_lpc17xx.o(HEAP) for Heap_Mem
    startup_lpc17xx.o(.text) refers to startup_lpc17xx.o(STACK) for Stack_Mem
    system_lpc17xx.o(i.SystemCoreClockUpdate) refers to lludivv7m.o(.text) for __aeabi_uldivmod
    system_lpc17xx.o(i.SystemCoreClockUpdate) refers to system_lpc17xx.o(.data) for SystemCoreClock
    lpc17xx_it.o(i.EINT3_IRQHandler) refers to lpc17xx_exti.o(i.EXTI_ClearEXTIFlag) for EXTI_ClearEXTIFlag
    lpc17xx_it.o(i.PWM1_IRQHandler) refers to lpc17xx_pwm.o(i.PWM_GetIntStatus) for PWM_GetIntStatus
    lpc17xx_it.o(i.PWM1_IRQHandler) refers to lpc17xx_pwm.o(i.PWM_ClearIntPending) for PWM_ClearIntPending
    lpc17xx_it.o(i.PWM1_IRQHandler) refers to lpc17xx_it.o(.data) for MR0
    lpc17xx_it.o(i.SysTick_Handler) refers to sytemtime.o(i.SystemTime_Timer) for SystemTime_Timer
    lpc17xx_it.o(i.SysTick_Handler) refers to peripheral.o(.data) for DelayC
    lpc17xx_it.o(i.TIMER0_IRQHandler) refers to lpc17xx_timer.o(i.TIM_GetIntStatus) for TIM_GetIntStatus
    lpc17xx_it.o(i.TIMER0_IRQHandler) refers to lpc17xx_timer.o(i.TIM_ClearIntPending) for TIM_ClearIntPending
    lpc17xx_it.o(i.UART0_IRQHandler) refers to lpc17xx_uart.o(i.UART_GetIntId) for UART_GetIntId
    lpc17xx_it.o(i.UART0_IRQHandler) refers to lpc17xx_uart.o(i.UART_GetLineStatus) for UART_GetLineStatus
    main.o(i.main) refers to user.o(i.Config) for Config
    main.o(i.main) refers to user.o(i.Variables) for Variables
    main.o(i.main) refers to user.o(i.Loop) for Loop
    peripheral.o(i.ADC_Config) refers to lpc17xx_clkpwr.o(i.CLKPWR_ConfigPPWR) for CLKPWR_ConfigPPWR
    peripheral.o(i.ADC_Config) refers to lpc17xx_clkpwr.o(i.CLKPWR_SetPCLKDiv) for CLKPWR_SetPCLKDiv
    peripheral.o(i.ADC_Config) refers to lpc17xx_gpio.o(i.GPIO_Init) for GPIO_Init
    peripheral.o(i.ADC_Config) refers to lpc17xx_adc.o(i.ADC_Init) for ADC_Init
    peripheral.o(i.ADC_Config) refers to lpc17xx_adc.o(i.ADC_ChannelCmd) for ADC_ChannelCmd
    peripheral.o(i.Delay) refers to peripheral.o(.data) for DelayC
    peripheral.o(i.IO_Config) refers to lpc17xx_gpio.o(i.GPIO_Init) for GPIO_Init
    peripheral.o(i.IO_Config) refers to lpc17xx_nvic.o(i.NVIC_Init) for NVIC_Init
    peripheral.o(i.IWDT_Config) refers to lpc17xx_wdt.o(i.WDT_Init) for WDT_Init
    peripheral.o(i.PWM_Config) refers to lpc17xx_clkpwr.o(i.CLKPWR_ConfigPPWR) for CLKPWR_ConfigPPWR
    peripheral.o(i.PWM_Config) refers to lpc17xx_clkpwr.o(i.CLKPWR_SetPCLKDiv) for CLKPWR_SetPCLKDiv
    peripheral.o(i.PWM_Config) refers to lpc17xx_gpio.o(i.GPIO_Init) for GPIO_Init
    peripheral.o(i.PWM_Config) refers to lpc17xx_pwm.o(i.PWM_Init) for PWM_Init
    peripheral.o(i.PWM_Config) refers to lpc17xx_pwm.o(i.PWM_MatchUpdate) for PWM_MatchUpdate
    peripheral.o(i.PWM_Config) refers to lpc17xx_pwm.o(i.PWM_ConfigMatch) for PWM_ConfigMatch
    peripheral.o(i.PWM_Config) refers to lpc17xx_pwm.o(i.PWM_ChannelConfig) for PWM_ChannelConfig
    peripheral.o(i.PWM_Config) refers to lpc17xx_pwm.o(i.PWM_ChannelCmd) for PWM_ChannelCmd
    peripheral.o(i.PWM_Config) refers to lpc17xx_pwm.o(i.PWM_ResetCounter) for PWM_ResetCounter
    peripheral.o(i.PWM_Config) refers to lpc17xx_pwm.o(i.PWM_CounterCmd) for PWM_CounterCmd
    peripheral.o(i.PWM_Config) refers to lpc17xx_pwm.o(i.PWM_Cmd) for PWM_Cmd
    peripheral.o(i.PWM_Config) refers to lpc17xx_nvic.o(i.NVIC_Init) for NVIC_Init
    peripheral.o(i.PWM_Config) refers to lpc17xx_it.o(.data) for MR0
    peripheral.o(i.Peripheral) refers to peripheral.o(i.NVIC_Config) for NVIC_Config
    peripheral.o(i.Peripheral) refers to peripheral.o(i.Systick_Config) for Systick_Config
    peripheral.o(i.Peripheral) refers to peripheral.o(i.IO_Config) for IO_Config
    peripheral.o(i.Peripheral) refers to peripheral.o(i.PWM_Config) for PWM_Config
    peripheral.o(i.Peripheral) refers to peripheral.o(i.USB_Config) for USB_Config
    peripheral.o(i.TIM_Config) refers to lpc17xx_clkpwr.o(i.CLKPWR_ConfigPPWR) for CLKPWR_ConfigPPWR
    peripheral.o(i.TIM_Config) refers to lpc17xx_clkpwr.o(i.CLKPWR_SetPCLKDiv) for CLKPWR_SetPCLKDiv
    peripheral.o(i.TIM_Config) refers to lpc17xx_timer.o(i.TIM_Init) for TIM_Init
    peripheral.o(i.TIM_Config) refers to lpc17xx_timer.o(i.TIM_ConfigMatch) for TIM_ConfigMatch
    peripheral.o(i.TIM_Config) refers to lpc17xx_timer.o(i.TIM_Cmd) for TIM_Cmd
    peripheral.o(i.TIM_Config) refers to lpc17xx_nvic.o(i.NVIC_Init) for NVIC_Init
    peripheral.o(i.UART_Config) refers to lpc17xx_clkpwr.o(i.CLKPWR_ConfigPPWR) for CLKPWR_ConfigPPWR
    peripheral.o(i.UART_Config) refers to lpc17xx_clkpwr.o(i.CLKPWR_SetPCLKDiv) for CLKPWR_SetPCLKDiv
    peripheral.o(i.UART_Config) refers to lpc17xx_uart.o(i.UART_Init) for UART_Init
    peripheral.o(i.UART_Config) refers to lpc17xx_uart.o(i.UART_FIFOConfig) for UART_FIFOConfig
    peripheral.o(i.UART_Config) refers to lpc17xx_uart.o(i.UART_TxCmd) for UART_TxCmd
    peripheral.o(i.UART_Config) refers to lpc17xx_nvic.o(i.NVIC_Init) for NVIC_Init
    peripheral.o(i.USB_Config) refers to peripheral.o(i.USB_Disconnect) for USB_Disconnect
    peripheral.o(i.USB_Config) refers to peripheral.o(.emb_text) for delay
    peripheral.o(i.USB_Config) refers to lpc17xx_nvic.o(i.NVIC_Init) for NVIC_Init
    peripheral.o(i.USB_Config) refers to usbhw.o(i.USB_Init) for USB_Init
    peripheral.o(i.USB_Config) refers to usbhw.o(i.USB_Connect) for USB_Connect
    peripheral.o(i.USB_Config) refers to usbcore.o(.data) for USB_Configuration
    peripheral.o(i.USB_Disconnect) refers to lpc17xx_gpio.o(i.GPIO_Init) for GPIO_Init
    peripheral.o(i.USB_Send_Bytes) refers to peripheral.o(i.USB_Transmit) for USB_Transmit
    peripheral.o(i.USB_Trace) refers to vsnprintf.o(.text) for vsnprintf
    peripheral.o(i.USB_Trace) refers to strcat.o(.text) for strcat
    peripheral.o(i.USB_Trace) refers to strlen.o(.text) for strlen
    peripheral.o(i.USB_Trace) refers to peripheral.o(i.USB_Transmit) for USB_Transmit
    peripheral.o(i.USB_Trace) refers to rt_memclr.o(.text) for __aeabi_memclr
    peripheral.o(i.USB_Trace) refers to peripheral.o(.bss) for USB_Buffer
    peripheral.o(i.USB_Transmit) refers to usbhw.o(i.USB_WriteEP) for USB_WriteEP
    peripheral.o(i.USB_Transmit) refers to cdcuser.o(.data) for All_Packets_Sent
    peripheral.o(i.Uart_Tx) refers to vsnprintf.o(.text) for vsnprintf
    peripheral.o(i.Uart_Tx) refers to strlen.o(.text) for strlen
    peripheral.o(i.Uart_Tx) refers to lpc17xx_uart.o(i.UART_Send) for UART_Send
    peripheral.o(i.Uart_Tx) refers to peripheral.o(.bss) for UART_Buffer
    user.o(i.Config) refers to peripheral.o(i.Peripheral) for Peripheral
    user.o(i.Loop) refers to dev.o(i.IO_Events) for IO_Events
    user.o(i.Loop) refers to dev.o(i.USB_Event) for USB_Event
    user.o(i.Variables) refers to dev.o(i.USB_Handler_Init) for USB_Handler_Init
    user.o(i.Variables) refers to dev.o(i.IO_Init) for IO_Init
    button.o(i.Button_Events) refers to timer.o(i.Timer_Elapsed) for Timer_Elapsed
    button.o(i.Button_Events) refers to button.o(i.Button_Fsm) for Button_Fsm
    button.o(i.Button_Fsm) refers to timer.o(i.Timer_Start) for Timer_Start
    button.o(i.Button_Init) refers to timer.o(i.Timer_Init) for Timer_Init
    bytes.o(i.Bytes_Print_ToHex) refers to _printf_pad.o(.text) for _printf_pre_padding
    bytes.o(i.Bytes_Print_ToHex) refers to _printf_percent.o(.ARM.Collect$$_printf_percent$$00000000) for _printf_percent
    bytes.o(i.Bytes_Print_ToHex) refers to _printf_x.o(.ARM.Collect$$_printf_percent$$0000000C) for _printf_x
    bytes.o(i.Bytes_Print_ToHex) refers to _printf_hex_int_ll_ptr.o(.text) for _printf_longlong_hex
    bytes.o(i.Bytes_Print_ToHex) refers to __2sprintf.o(.text) for __2sprintf
    bytes.o(i.Bytes_Print_ToHex) refers to strcat.o(.text) for strcat
    capture.o(i.Capture_ToString) refers to parameters.o(i.Parameters_Add_Uint) for Parameters_Add_Uint
    capture.o(i.Capture_ToString) refers to parameters.o(i.Parameters_Add_UintToLine) for Parameters_Add_UintToLine
    fifo.o(i.Fifo_Init) refers to timer.o(i.Timer_Init) for Timer_Init
    fifo.o(i.Fifo_OnInactive) refers to timer.o(i.Timer_Elapsed) for Timer_Elapsed
    fifo.o(i.Fifo_Write) refers to timer.o(i.Timer_Start) for Timer_Start
    parameters.o(i.Parameters_Add_Float) refers to _printf_pad.o(.text) for _printf_pre_padding
    parameters.o(i.Parameters_Add_Float) refers to _printf_percent.o(.ARM.Collect$$_printf_percent$$00000000) for _printf_percent
    parameters.o(i.Parameters_Add_Float) refers to _printf_f.o(.ARM.Collect$$_printf_percent$$00000003) for _printf_f
    parameters.o(i.Parameters_Add_Float) refers to printf1.o(x$fpl$printf1) for _printf_fp_dec
    parameters.o(i.Parameters_Add_Float) refers to f2d.o(x$fpl$f2d) for __aeabi_f2d
    parameters.o(i.Parameters_Add_Float) refers to __2sprintf.o(.text) for __2sprintf
    parameters.o(i.Parameters_Add_Float) refers to strcat.o(.text) for strcat
    parameters.o(i.Parameters_Add_FloatToLine) refers to _printf_pad.o(.text) for _printf_pre_padding
    parameters.o(i.Parameters_Add_FloatToLine) refers to _printf_percent.o(.ARM.Collect$$_printf_percent$$00000000) for _printf_percent
    parameters.o(i.Parameters_Add_FloatToLine) refers to _printf_f.o(.ARM.Collect$$_printf_percent$$00000003) for _printf_f
    parameters.o(i.Parameters_Add_FloatToLine) refers to printf1.o(x$fpl$printf1) for _printf_fp_dec
    parameters.o(i.Parameters_Add_FloatToLine) refers to f2d.o(x$fpl$f2d) for __aeabi_f2d
    parameters.o(i.Parameters_Add_FloatToLine) refers to __2sprintf.o(.text) for __2sprintf
    parameters.o(i.Parameters_Add_FloatToLine) refers to strcat.o(.text) for strcat
    parameters.o(i.Parameters_Add_Str) refers to strcat.o(.text) for strcat
    parameters.o(i.Parameters_Add_StrToLine) refers to strcat.o(.text) for strcat
    parameters.o(i.Parameters_Add_Uint) refers to _printf_percent.o(.ARM.Collect$$_printf_percent$$00000000) for _printf_percent
    parameters.o(i.Parameters_Add_Uint) refers to _printf_d.o(.ARM.Collect$$_printf_percent$$00000009) for _printf_d
    parameters.o(i.Parameters_Add_Uint) refers to _printf_dec.o(.text) for _printf_int_dec
    parameters.o(i.Parameters_Add_Uint) refers to __2sprintf.o(.text) for __2sprintf
    parameters.o(i.Parameters_Add_Uint) refers to strcat.o(.text) for strcat
    parameters.o(i.Parameters_Add_UintToLine) refers to _printf_percent.o(.ARM.Collect$$_printf_percent$$00000000) for _printf_percent
    parameters.o(i.Parameters_Add_UintToLine) refers to _printf_d.o(.ARM.Collect$$_printf_percent$$00000009) for _printf_d
    parameters.o(i.Parameters_Add_UintToLine) refers to _printf_dec.o(.text) for _printf_int_dec
    parameters.o(i.Parameters_Add_UintToLine) refers to __2sprintf.o(.text) for __2sprintf
    parameters.o(i.Parameters_Add_UintToLine) refers to strcat.o(.text) for strcat
    parameters.o(i.Parameters_Compare) refers to strtok.o(.text) for strtok
    parameters.o(i.Parameters_Compare) refers to strstr.o(.text) for strstr
    parameters.o(i.Parameters_Get_StrWhitDefault) refers to str.o(i.String_Between) for String_Between
    parameters.o(i.Parameters_Get_StrWhitDefault) refers to strcmpv7m.o(.text) for strcmp
    parameters.o(i.Parameters_Get_StrWhitDefault) refers to strcpy.o(.text) for strcpy
    parameters.o(i.Parameters_Set) refers to strstr.o(.text) for strstr
    parameters.o(i.Parameters_Set) refers to strcat.o(.text) for strcat
    parameters.o(i.Parameters_Set) refers to strcpy.o(.text) for strcpy
    parameters.o(i.Parameters_Set) refers to str.o(i.String_Between) for String_Between
    parameters.o(i.Parameters_Set_Line) refers to strstr.o(.text) for strstr
    parameters.o(i.Parameters_Set_Line) refers to strcat.o(.text) for strcat
    parameters.o(i.Parameters_Set_Line) refers to str.o(i.String_Between) for String_Between
    parameters.o(i.Parameters_Set_Line) refers to parameters.o(i.Parameters_Set) for Parameters_Set
    parameters.o(i.Parameters_Set_Lines) refers to strtok.o(.text) for strtok
    parameters.o(i.Parameters_Set_Lines) refers to strcpy.o(.text) for strcpy
    parameters.o(i.Parameters_Set_Lines) refers to parameters.o(i.Parameters_Set_Line) for Parameters_Set_Line
    parameters.o(i.Prm_AddInt) refers to _printf_percent.o(.ARM.Collect$$_printf_percent$$00000000) for _printf_percent
    parameters.o(i.Prm_AddInt) refers to _printf_d.o(.ARM.Collect$$_printf_percent$$00000009) for _printf_d
    parameters.o(i.Prm_AddInt) refers to _printf_dec.o(.text) for _printf_int_dec
    parameters.o(i.Prm_AddInt) refers to __2sprintf.o(.text) for __2sprintf
    parameters.o(i.Prm_AddInt) refers to strcat.o(.text) for strcat
    parameters.o(i.Prm_AddStr) refers to strcat.o(.text) for strcat
    pulse.o(i.Pulse_Fsm) refers to bool.o(i.Bool_Toggle) for Bool_Toggle
    pulse.o(i.Pulse_Fsm) refers to timer.o(i.Timer_Init) for Timer_Init
    pulse.o(i.Pulse_Fsm) refers to timer.o(i.Timer_Start) for Timer_Start
    pulse.o(i.Pulse_Get_Nivel) refers to pulse.o(i.Pulse_Sync) for Pulse_Sync
    pulse.o(i.Pulse_Get_Nivel) refers to timer.o(i.Timer_Elapsed) for Timer_Elapsed
    pulse.o(i.Pulse_Get_Nivel) refers to pulse.o(i.Pulse_Fsm) for Pulse_Fsm
    pulse.o(i.Pulse_Get_Nivel) refers to pulse.o(.data) for pulse_sync_Nivel
    pulse.o(i.Pulse_Init) refers to timer.o(i.Timer_Init) for Timer_Init
    pulse.o(i.Pulse_Init) refers to timer.o(i.Timer_Start) for Timer_Start
    pulse.o(i.Pulse_Init) refers to pulse.o(.bss) for pulse_syncronous_Timer
    pulse.o(i.Pulse_Sync) refers to timer.o(i.Timer_Elapsed) for Timer_Elapsed
    pulse.o(i.Pulse_Sync) refers to bool.o(i.Bool_Toggle) for Bool_Toggle
    pulse.o(i.Pulse_Sync) refers to timer.o(i.Timer_Init) for Timer_Init
    pulse.o(i.Pulse_Sync) refers to timer.o(i.Timer_Start) for Timer_Start
    pulse.o(i.Pulse_Sync) refers to pulse.o(.bss) for pulse_syncronous_Timer
    pulse.o(i.Pulse_Sync) refers to pulse.o(.data) for pulse_sync_Nivel
    serial.o(i.Serial_Events) refers to rt_memclr_w.o(.text) for __aeabi_memclr4
    serial.o(i.Serial_Events) refers to fifo.o(i.Fifo_OnInactive) for Fifo_OnInactive
    serial.o(i.Serial_Events) refers to fifo.o(i.Fifo_Read) for Fifo_Read
    serial.o(i.Serial_Init) refers to fifo.o(i.Fifo_Init) for Fifo_Init
    serial.o(i.Usb_InitVar) refers to timer.o(i.Timer_Init) for Timer_Init
    str.o(i.Str_NotEqual) refers to strcmpv7m.o(.text) for strcmp
    str.o(i.String_Between) refers to str.o(i.String_Is_Empty) for String_Is_Empty
    str.o(i.String_Between) refers to strcmpv7m.o(.text) for strcmp
    str.o(i.String_Between) refers to strstr.o(.text) for strstr
    str.o(i.String_Between) refers to strlen.o(.text) for strlen
    str.o(i.String_Between) refers to strlcpy.o(.text) for strlcpy
    str.o(i.String_Compare) refers to strcmpv7m.o(.text) for strcmp
    str.o(i.String_Has) refers to strcmpv7m.o(.text) for strcmp
    str.o(i.String_Is_Empty) refers to str.o(i.String_Has) for String_Has
    str.o(i.String_Read_Line) refers to str.o(i.String_Is_Empty) for String_Is_Empty
    str.o(i.String_Read_Line) refers to str.o(i.String_Read_TotalLinesNumber) for String_Read_TotalLinesNumber
    str.o(i.String_Read_Line) refers to str.o(i.String_Between) for String_Between
    str.o(i.String_Read_Line) refers to strstr.o(.text) for strstr
    str.o(i.String_Read_TotalLinesNumber) refers to str.o(i.String_Is_Empty) for String_Is_Empty
    str.o(i.String_Read_TotalLinesNumber) refers to strstr.o(.text) for strstr
    str.o(i.String_Remplace) refers to str.o(i.String_Is_Empty) for String_Is_Empty
    str.o(i.String_Remplace) refers to strtok.o(.text) for strtok
    str.o(i.String_Remplace) refers to strcat.o(.text) for strcat
    str.o(i.String_Remplace_Line) refers to str.o(i.String_Is_Empty) for String_Is_Empty
    str.o(i.String_Remplace_Line) refers to strtok.o(.text) for strtok
    str.o(i.String_Remplace_Line) refers to strstr.o(.text) for strstr
    str.o(i.String_Remplace_Line) refers to strcat.o(.text) for strcat
    str.o(i.String_Remplace_Line) refers to strcpy.o(.text) for strcpy
    str.o(i.String_Trim_Total) refers to str.o(i.String_Is_Empty) for String_Is_Empty
    str.o(i.String_Trim_Total) refers to strlen.o(.text) for strlen
    sytemtime.o(i.SystemTime_GetTime) refers to sytemtime.o(.data) for st
    sytemtime.o(i.SystemTime_Init) refers to sytemtime.o(.data) for st
    sytemtime.o(i.SystemTime_Timer) refers to sytemtime.o(.data) for st
    sytemtime.o(i.SystemTime_To_String) refers to _printf_pad.o(.text) for _printf_pre_padding
    sytemtime.o(i.SystemTime_To_String) refers to _printf_percent.o(.ARM.Collect$$_printf_percent$$00000000) for _printf_percent
    sytemtime.o(i.SystemTime_To_String) refers to _printf_d.o(.ARM.Collect$$_printf_percent$$00000009) for _printf_d
    sytemtime.o(i.SystemTime_To_String) refers to _printf_dec.o(.text) for _printf_int_dec
    sytemtime.o(i.SystemTime_To_String) refers to __2sprintf.o(.text) for __2sprintf
    sytemtime.o(i.SystemTime_To_String) refers to sytemtime.o(.data) for st
    timer.o(i.Timer_Elapsed) refers to timer.o(i.Timer_GetTime) for Timer_GetTime
    timer.o(i.Timer_Elapsed) refers to timer.o(i.Timer_Stop) for Timer_Stop
    timer.o(i.Timer_GetRemainingTime) refers to timer.o(i.Timer_GetTime) for Timer_GetTime
    timer.o(i.Timer_GetRemainingTimeInSeconds) refers to timer.o(i.Timer_GetTime) for Timer_GetTime
    timer.o(i.Timer_GetTime) refers to sytemtime.o(i.SystemTime_GetTime) for SystemTime_GetTime
    timer.o(i.Timer_Start) refers to sytemtime.o(i.SystemTime_GetTime) for SystemTime_GetTime
    handlers.o(i.Button_Handler) refers to peripheral.o(i.USB_Trace) for USB_Trace
    handlers.o(i.Button_Handler) refers to handlers.o(.data) for y
    handlers.o(i.USB_Receiver_Handler) refers to peripheral.o(i.USB_Trace) for USB_Trace
    handlers.o(i.USB_Receiver_Handler) refers to strstr.o(.text) for strstr
    handlers.o(i.USB_Receiver_Handler) refers to atoi.o(.text) for atoi
    handlers.o(i.USB_Receiver_Handler) refers to fflt_clz.o(x$fpl$ffltu) for __aeabi_ui2f
    handlers.o(i.USB_Receiver_Handler) refers to f2d.o(x$fpl$f2d) for __aeabi_f2d
    handlers.o(i.USB_Receiver_Handler) refers to lpc17xx_pwm.o(i.PWM_MatchUpdate) for PWM_MatchUpdate
    dev.o(i.ADC_Process_Init) refers to timer.o(i.Timer_Init) for Timer_Init
    dev.o(i.ADC_Process_Init) refers to timer.o(i.Timer_Start) for Timer_Start
    dev.o(i.ADC_Process_Init) refers to dev.o(.bss) for Adc_Tmr
    dev.o(i.ADC_Read_Event) refers to timer.o(i.Timer_Elapsed) for Timer_Elapsed
    dev.o(i.ADC_Read_Event) refers to lpc17xx_adc.o(i.ADC_StartCmd) for ADC_StartCmd
    dev.o(i.ADC_Read_Event) refers to lpc17xx_adc.o(i.ADC_ChannelGetData) for ADC_ChannelGetData
    dev.o(i.ADC_Read_Event) refers to peripheral.o(i.USB_Trace) for USB_Trace
    dev.o(i.ADC_Read_Event) refers to timer.o(i.Timer_Start) for Timer_Start
    dev.o(i.ADC_Read_Event) refers to dev.o(.bss) for Adc_Tmr
    dev.o(i.IO_Events) refers to timer.o(i.Timer_Elapsed) for Timer_Elapsed
    dev.o(i.IO_Events) refers to timer.o(i.Timer_Start) for Timer_Start
    dev.o(i.IO_Events) refers to button.o(i.Button_Fsm) for Button_Fsm
    dev.o(i.IO_Events) refers to button.o(i.Button_Events) for Button_Events
    dev.o(i.IO_Events) refers to dev.o(.bss) for Led_Tmr
    dev.o(i.IO_Init) refers to button.o(i.Button_Init) for Button_Init
    dev.o(i.IO_Init) refers to timer.o(i.Timer_Init) for Timer_Init
    dev.o(i.IO_Init) refers to timer.o(i.Timer_Start) for Timer_Start
    dev.o(i.IO_Init) refers to handlers.o(i.Button_Handler) for Button_Handler
    dev.o(i.IO_Init) refers to dev.o(.bss) for button
    dev.o(i.USB_Event) refers to serial.o(i.Serial_Events) for Serial_Events
    dev.o(i.USB_Event) refers to dev.o(.bss) for Usb
    dev.o(i.USB_Handler_Init) refers to fifo.o(i.Fifo_Init) for Fifo_Init
    dev.o(i.USB_Handler_Init) refers to dev.o(.bss) for Usb
    dev.o(i.USB_Handler_Init) refers to handlers.o(i.USB_Receiver_Handler) for USB_Receiver_Handler
    lpc17xx_adc.o(i.ADC_BurstCmd) refers to lpc17xx_adc.o(i.check_failed) for check_failed
    lpc17xx_adc.o(i.ADC_ChannelCmd) refers to lpc17xx_adc.o(i.check_failed) for check_failed
    lpc17xx_adc.o(i.ADC_ChannelGetData) refers to lpc17xx_adc.o(i.check_failed) for check_failed
    lpc17xx_adc.o(i.ADC_ChannelGetStatus) refers to lpc17xx_adc.o(i.check_failed) for check_failed
    lpc17xx_adc.o(i.ADC_DeInit) refers to lpc17xx_adc.o(i.check_failed) for check_failed
    lpc17xx_adc.o(i.ADC_DeInit) refers to lpc17xx_clkpwr.o(i.CLKPWR_ConfigPPWR) for CLKPWR_ConfigPPWR
    lpc17xx_adc.o(i.ADC_EdgeStartConfig) refers to lpc17xx_adc.o(i.check_failed) for check_failed
    lpc17xx_adc.o(i.ADC_GlobalGetData) refers to lpc17xx_adc.o(i.check_failed) for check_failed
    lpc17xx_adc.o(i.ADC_GlobalGetStatus) refers to lpc17xx_adc.o(i.check_failed) for check_failed
    lpc17xx_adc.o(i.ADC_Init) refers to lpc17xx_adc.o(i.check_failed) for check_failed
    lpc17xx_adc.o(i.ADC_Init) refers to lpc17xx_clkpwr.o(i.CLKPWR_GetPCLK) for CLKPWR_GetPCLK
    lpc17xx_adc.o(i.ADC_IntConfig) refers to lpc17xx_adc.o(i.check_failed) for check_failed
    lpc17xx_adc.o(i.ADC_PowerdownCmd) refers to lpc17xx_adc.o(i.check_failed) for check_failed
    lpc17xx_adc.o(i.ADC_StartCmd) refers to lpc17xx_adc.o(i.check_failed) for check_failed
    lpc17xx_can.o(i.CAN_DeInit) refers to lpc17xx_can.o(i.check_failed) for check_failed
    lpc17xx_can.o(i.CAN_DeInit) refers to lpc17xx_clkpwr.o(i.CLKPWR_ConfigPPWR) for CLKPWR_ConfigPPWR
    lpc17xx_can.o(i.CAN_FullCANIntGetStatus) refers to lpc17xx_can.o(i.check_failed) for check_failed
    lpc17xx_can.o(i.CAN_FullCANPendGetStatus) refers to lpc17xx_can.o(i.check_failed) for check_failed
    lpc17xx_can.o(i.CAN_GetCRStatus) refers to lpc17xx_can.o(i.check_failed) for check_failed
    lpc17xx_can.o(i.CAN_GetCTRLStatus) refers to lpc17xx_can.o(i.check_failed) for check_failed
    lpc17xx_can.o(i.CAN_IRQCmd) refers to lpc17xx_can.o(i.check_failed) for check_failed
    lpc17xx_can.o(i.CAN_Init) refers to lpc17xx_can.o(i.check_failed) for check_failed
    lpc17xx_can.o(i.CAN_Init) refers to lpc17xx_clkpwr.o(i.CLKPWR_ConfigPPWR) for CLKPWR_ConfigPPWR
    lpc17xx_can.o(i.CAN_Init) refers to lpc17xx_clkpwr.o(i.CLKPWR_SetPCLKDiv) for CLKPWR_SetPCLKDiv
    lpc17xx_can.o(i.CAN_Init) refers to lpc17xx_can.o(i.can_SetBaudrate) for can_SetBaudrate
    lpc17xx_can.o(i.CAN_IntGetStatus) refers to lpc17xx_can.o(i.check_failed) for check_failed
    lpc17xx_can.o(i.CAN_LoadExplicitEntry) refers to lpc17xx_can.o(i.check_failed) for check_failed
    lpc17xx_can.o(i.CAN_LoadExplicitEntry) refers to lpc17xx_can.o(.data) for CANAF_FullCAN_cnt
    lpc17xx_can.o(i.CAN_LoadFullCANEntry) refers to lpc17xx_can.o(i.check_failed) for check_failed
    lpc17xx_can.o(i.CAN_LoadFullCANEntry) refers to lpc17xx_can.o(.data) for CANAF_FullCAN_cnt
    lpc17xx_can.o(i.CAN_LoadGroupEntry) refers to lpc17xx_can.o(i.check_failed) for check_failed
    lpc17xx_can.o(i.CAN_LoadGroupEntry) refers to lpc17xx_can.o(.data) for CANAF_FullCAN_cnt
    lpc17xx_can.o(i.CAN_ModeConfig) refers to lpc17xx_can.o(i.check_failed) for check_failed
    lpc17xx_can.o(i.CAN_ReceiveMsg) refers to lpc17xx_can.o(i.check_failed) for check_failed
    lpc17xx_can.o(i.CAN_RemoveEntry) refers to lpc17xx_can.o(i.check_failed) for check_failed
    lpc17xx_can.o(i.CAN_RemoveEntry) refers to lpc17xx_can.o(.data) for CANAF_FullCAN_cnt
    lpc17xx_can.o(i.CAN_SendMsg) refers to lpc17xx_can.o(i.check_failed) for check_failed
    lpc17xx_can.o(i.CAN_SetAFMode) refers to lpc17xx_can.o(i.check_failed) for check_failed
    lpc17xx_can.o(i.CAN_SetCommand) refers to lpc17xx_can.o(i.check_failed) for check_failed
    lpc17xx_can.o(i.CAN_SetupAFLUT) refers to lpc17xx_can.o(i.check_failed) for check_failed
    lpc17xx_can.o(i.CAN_SetupAFLUT) refers to lpc17xx_can.o(.data) for FULLCAN_ENABLE
    lpc17xx_can.o(i.FCAN_ReadObj) refers to lpc17xx_can.o(i.check_failed) for check_failed
    lpc17xx_can.o(i.can_SetBaudrate) refers to lpc17xx_can.o(i.check_failed) for check_failed
    lpc17xx_can.o(i.can_SetBaudrate) refers to lpc17xx_clkpwr.o(i.CLKPWR_GetPCLK) for CLKPWR_GetPCLK
    lpc17xx_clkpwr.o(i.CLKPWR_GetPCLK) refers to lpc17xx_clkpwr.o(i.CLKPWR_GetPCLKSEL) for CLKPWR_GetPCLKSEL
    lpc17xx_clkpwr.o(i.CLKPWR_GetPCLK) refers to system_lpc17xx.o(.data) for SystemCoreClock
    lpc17xx_dac.o(i.DAC_Init) refers to lpc17xx_dac.o(i.DAC_SetBias) for DAC_SetBias
    lpc17xx_emac.o(i.EMAC_CheckPHYStatus) refers to lpc17xx_emac.o(i.read_PHY) for read_PHY
    lpc17xx_emac.o(i.EMAC_CheckReceiveDataStatus) refers to lpc17xx_emac.o(.bss) for Rx_Stat
    lpc17xx_emac.o(i.EMAC_DeInit) refers to lpc17xx_clkpwr.o(i.CLKPWR_ConfigPPWR) for CLKPWR_ConfigPPWR
    lpc17xx_emac.o(i.EMAC_GetReceiveDataSize) refers to lpc17xx_emac.o(.bss) for Rx_Stat
    lpc17xx_emac.o(i.EMAC_Init) refers to lpc17xx_clkpwr.o(i.CLKPWR_ConfigPPWR) for CLKPWR_ConfigPPWR
    lpc17xx_emac.o(i.EMAC_Init) refers to lpc17xx_emac.o(i.write_PHY) for write_PHY
    lpc17xx_emac.o(i.EMAC_Init) refers to lpc17xx_emac.o(i.read_PHY) for read_PHY
    lpc17xx_emac.o(i.EMAC_Init) refers to lpc17xx_emac.o(i.EMAC_SetPHYMode) for EMAC_SetPHYMode
    lpc17xx_emac.o(i.EMAC_Init) refers to lpc17xx_emac.o(i.setEmacAddr) for setEmacAddr
    lpc17xx_emac.o(i.EMAC_Init) refers to lpc17xx_emac.o(i.rx_descr_init) for rx_descr_init
    lpc17xx_emac.o(i.EMAC_Init) refers to lpc17xx_emac.o(i.tx_descr_init) for tx_descr_init
    lpc17xx_emac.o(i.EMAC_Init) refers to system_lpc17xx.o(.data) for SystemCoreClock
    lpc17xx_emac.o(i.EMAC_Init) refers to lpc17xx_emac.o(.constdata) for EMAC_clkdiv
    lpc17xx_emac.o(i.EMAC_ReadPacketBuffer) refers to lpc17xx_emac.o(.bss) for Rx_Desc
    lpc17xx_emac.o(i.EMAC_SetHashFilter) refers to lpc17xx_emac.o(i.emac_CRCCalc) for emac_CRCCalc
    lpc17xx_emac.o(i.EMAC_SetPHYMode) refers to lpc17xx_emac.o(i.read_PHY) for read_PHY
    lpc17xx_emac.o(i.EMAC_SetPHYMode) refers to lpc17xx_emac.o(i.write_PHY) for write_PHY
    lpc17xx_emac.o(i.EMAC_SetPHYMode) refers to lpc17xx_emac.o(i.EMAC_UpdatePHYStatus) for EMAC_UpdatePHYStatus
    lpc17xx_emac.o(i.EMAC_UpdatePHYStatus) refers to lpc17xx_emac.o(i.read_PHY) for read_PHY
    lpc17xx_emac.o(i.EMAC_WritePacketBuffer) refers to lpc17xx_emac.o(.bss) for Tx_Desc
    lpc17xx_emac.o(i.rx_descr_init) refers to lpc17xx_emac.o(.bss) for rx_buf
    lpc17xx_emac.o(i.tx_descr_init) refers to lpc17xx_emac.o(.bss) for tx_buf
    lpc17xx_exti.o(i.EXTI_Init) refers to lpc17xx_exti.o(i.EXTI_ClearEXTIFlag) for EXTI_ClearEXTIFlag
    lpc17xx_gpdma.o(i.GPDMA_ChannelCmd) refers to lpc17xx_gpdma.o(.data) for pGPDMACh
    lpc17xx_gpdma.o(i.GPDMA_ClearIntPending) refers to lpc17xx_gpdma.o(i.check_failed) for check_failed
    lpc17xx_gpdma.o(i.GPDMA_Init) refers to lpc17xx_clkpwr.o(i.CLKPWR_ConfigPPWR) for CLKPWR_ConfigPPWR
    lpc17xx_gpdma.o(i.GPDMA_IntGetStatus) refers to lpc17xx_gpdma.o(i.check_failed) for check_failed
    lpc17xx_gpdma.o(i.GPDMA_Setup) refers to lpc17xx_gpdma.o(.data) for pGPDMACh
    lpc17xx_gpdma.o(i.GPDMA_Setup) refers to lpc17xx_gpdma.o(.constdata) for GPDMA_LUTPerBurst
    lpc17xx_i2c.o(i.I2C_Cmd) refers to lpc17xx_i2c.o(i.check_failed) for check_failed
    lpc17xx_i2c.o(i.I2C_DeInit) refers to lpc17xx_i2c.o(i.check_failed) for check_failed
    lpc17xx_i2c.o(i.I2C_DeInit) refers to lpc17xx_clkpwr.o(i.CLKPWR_ConfigPPWR) for CLKPWR_ConfigPPWR
    lpc17xx_i2c.o(i.I2C_Init) refers to lpc17xx_i2c.o(i.check_failed) for check_failed
    lpc17xx_i2c.o(i.I2C_Init) refers to lpc17xx_clkpwr.o(i.CLKPWR_ConfigPPWR) for CLKPWR_ConfigPPWR
    lpc17xx_i2c.o(i.I2C_Init) refers to lpc17xx_clkpwr.o(i.CLKPWR_SetPCLKDiv) for CLKPWR_SetPCLKDiv
    lpc17xx_i2c.o(i.I2C_Init) refers to lpc17xx_i2c.o(i.I2C_SetClock) for I2C_SetClock
    lpc17xx_i2c.o(i.I2C_IntCmd) refers to lpc17xx_i2c.o(i.NVIC_EnableIRQ) for NVIC_EnableIRQ
    lpc17xx_i2c.o(i.I2C_IntCmd) refers to lpc17xx_i2c.o(i.NVIC_DisableIRQ) for NVIC_DisableIRQ
    lpc17xx_i2c.o(i.I2C_MasterHandler) refers to lpc17xx_i2c.o(i.I2C_getNum) for I2C_getNum
    lpc17xx_i2c.o(i.I2C_MasterHandler) refers to lpc17xx_i2c.o(i.I2C_MasterHanleStates) for I2C_MasterHanleStates
    lpc17xx_i2c.o(i.I2C_MasterHandler) refers to lpc17xx_i2c.o(i.I2C_IntCmd) for I2C_IntCmd
    lpc17xx_i2c.o(i.I2C_MasterHandler) refers to lpc17xx_i2c.o(.bss) for i2cdat
    lpc17xx_i2c.o(i.I2C_MasterHanleStates) refers to lpc17xx_i2c.o(i.I2C_SendByte) for I2C_SendByte
    lpc17xx_i2c.o(i.I2C_MasterHanleStates) refers to lpc17xx_i2c.o(i.I2C_Stop) for I2C_Stop
    lpc17xx_i2c.o(i.I2C_MasterHanleStates) refers to lpc17xx_i2c.o(i.I2C_GetByte) for I2C_GetByte
    lpc17xx_i2c.o(i.I2C_MasterTransferComplete) refers to lpc17xx_i2c.o(i.I2C_getNum) for I2C_getNum
    lpc17xx_i2c.o(i.I2C_MasterTransferComplete) refers to lpc17xx_i2c.o(.bss) for I2C_MasterComplete
    lpc17xx_i2c.o(i.I2C_MasterTransferData) refers to lpc17xx_i2c.o(i.I2C_getNum) for I2C_getNum
    lpc17xx_i2c.o(i.I2C_MasterTransferData) refers to lpc17xx_i2c.o(i.I2C_Start) for I2C_Start
    lpc17xx_i2c.o(i.I2C_MasterTransferData) refers to lpc17xx_i2c.o(i.I2C_MasterHanleStates) for I2C_MasterHanleStates
    lpc17xx_i2c.o(i.I2C_MasterTransferData) refers to lpc17xx_i2c.o(i.I2C_IntCmd) for I2C_IntCmd
    lpc17xx_i2c.o(i.I2C_MasterTransferData) refers to lpc17xx_i2c.o(.bss) for i2cdat
    lpc17xx_i2c.o(i.I2C_MonitorGetDatabuffer) refers to lpc17xx_i2c.o(i.check_failed) for check_failed
    lpc17xx_i2c.o(i.I2C_MonitorHandler) refers to lpc17xx_i2c.o(.data) for I2C_MonitorBufferIndex
    lpc17xx_i2c.o(i.I2C_MonitorModeCmd) refers to lpc17xx_i2c.o(i.check_failed) for check_failed
    lpc17xx_i2c.o(i.I2C_MonitorModeCmd) refers to lpc17xx_i2c.o(.data) for I2C_MonitorBufferIndex
    lpc17xx_i2c.o(i.I2C_MonitorModeConfig) refers to lpc17xx_i2c.o(i.check_failed) for check_failed
    lpc17xx_i2c.o(i.I2C_SetClock) refers to lpc17xx_i2c.o(i.check_failed) for check_failed
    lpc17xx_i2c.o(i.I2C_SetClock) refers to lpc17xx_clkpwr.o(i.CLKPWR_GetPCLK) for CLKPWR_GetPCLK
    lpc17xx_i2c.o(i.I2C_SetOwnSlaveAddr) refers to lpc17xx_i2c.o(i.check_failed) for check_failed
    lpc17xx_i2c.o(i.I2C_SlaveHandler) refers to lpc17xx_i2c.o(i.I2C_getNum) for I2C_getNum
    lpc17xx_i2c.o(i.I2C_SlaveHandler) refers to lpc17xx_i2c.o(i.I2C_SlaveHanleStates) for I2C_SlaveHanleStates
    lpc17xx_i2c.o(i.I2C_SlaveHandler) refers to lpc17xx_i2c.o(i.I2C_IntCmd) for I2C_IntCmd
    lpc17xx_i2c.o(i.I2C_SlaveHandler) refers to lpc17xx_i2c.o(.bss) for i2cdat
    lpc17xx_i2c.o(i.I2C_SlaveTransferComplete) refers to lpc17xx_i2c.o(i.I2C_getNum) for I2C_getNum
    lpc17xx_i2c.o(i.I2C_SlaveTransferComplete) refers to lpc17xx_i2c.o(.bss) for I2C_SlaveComplete
    lpc17xx_i2c.o(i.I2C_SlaveTransferData) refers to lpc17xx_i2c.o(i.I2C_getNum) for I2C_getNum
    lpc17xx_i2c.o(i.I2C_SlaveTransferData) refers to lpc17xx_i2c.o(i.I2C_SlaveHanleStates) for I2C_SlaveHanleStates
    lpc17xx_i2c.o(i.I2C_SlaveTransferData) refers to lpc17xx_i2c.o(i.I2C_IntCmd) for I2C_IntCmd
    lpc17xx_i2c.o(i.I2C_SlaveTransferData) refers to lpc17xx_i2c.o(.bss) for i2cdat
    lpc17xx_i2s.o(i.I2S_Config) refers to lpc17xx_i2s.o(i.check_failed) for check_failed
    lpc17xx_i2s.o(i.I2S_DMACmd) refers to lpc17xx_i2s.o(i.check_failed) for check_failed
    lpc17xx_i2s.o(i.I2S_DMAConfig) refers to lpc17xx_i2s.o(i.check_failed) for check_failed
    lpc17xx_i2s.o(i.I2S_DeInit) refers to lpc17xx_i2s.o(i.check_failed) for check_failed
    lpc17xx_i2s.o(i.I2S_DeInit) refers to lpc17xx_clkpwr.o(i.CLKPWR_ConfigPPWR) for CLKPWR_ConfigPPWR
    lpc17xx_i2s.o(i.I2S_FreqConfig) refers to lpc17xx_i2s.o(i.check_failed) for check_failed
    lpc17xx_i2s.o(i.I2S_FreqConfig) refers to lpc17xx_clkpwr.o(i.CLKPWR_GetPCLK) for CLKPWR_GetPCLK
    lpc17xx_i2s.o(i.I2S_FreqConfig) refers to lpc17xx_i2s.o(i.i2s_GetChannel) for i2s_GetChannel
    lpc17xx_i2s.o(i.I2S_FreqConfig) refers to lpc17xx_i2s.o(i.i2s_GetWordWidth) for i2s_GetWordWidth
    lpc17xx_i2s.o(i.I2S_FreqConfig) refers to lludivv7m.o(.text) for __aeabi_uldivmod
    lpc17xx_i2s.o(i.I2S_GetIRQDepth) refers to lpc17xx_i2s.o(i.check_failed) for check_failed
    lpc17xx_i2s.o(i.I2S_GetIRQStatus) refers to lpc17xx_i2s.o(i.check_failed) for check_failed
    lpc17xx_i2s.o(i.I2S_GetLevel) refers to lpc17xx_i2s.o(i.check_failed) for check_failed
    lpc17xx_i2s.o(i.I2S_IRQCmd) refers to lpc17xx_i2s.o(i.check_failed) for check_failed
    lpc17xx_i2s.o(i.I2S_IRQConfig) refers to lpc17xx_i2s.o(i.check_failed) for check_failed
    lpc17xx_i2s.o(i.I2S_Init) refers to lpc17xx_i2s.o(i.check_failed) for check_failed
    lpc17xx_i2s.o(i.I2S_Init) refers to lpc17xx_clkpwr.o(i.CLKPWR_ConfigPPWR) for CLKPWR_ConfigPPWR
    lpc17xx_i2s.o(i.I2S_ModeConfig) refers to lpc17xx_i2s.o(i.check_failed) for check_failed
    lpc17xx_i2s.o(i.I2S_Mute) refers to lpc17xx_i2s.o(i.check_failed) for check_failed
    lpc17xx_i2s.o(i.I2S_Pause) refers to lpc17xx_i2s.o(i.check_failed) for check_failed
    lpc17xx_i2s.o(i.I2S_Receive) refers to lpc17xx_i2s.o(i.check_failed) for check_failed
    lpc17xx_i2s.o(i.I2S_Send) refers to lpc17xx_i2s.o(i.check_failed) for check_failed
    lpc17xx_i2s.o(i.I2S_SetBitRate) refers to lpc17xx_i2s.o(i.check_failed) for check_failed
    lpc17xx_i2s.o(i.I2S_Stop) refers to lpc17xx_i2s.o(i.check_failed) for check_failed
    lpc17xx_i2s.o(i.i2s_GetChannel) refers to lpc17xx_i2s.o(i.check_failed) for check_failed
    lpc17xx_i2s.o(i.i2s_GetWordWidth) refers to lpc17xx_i2s.o(i.check_failed) for check_failed
    lpc17xx_iap.o(i.BlankCheckSector) refers to lpc17xx_iap.o(.data) for iap_entry
    lpc17xx_iap.o(i.Compare) refers to lpc17xx_iap.o(.data) for iap_entry
    lpc17xx_iap.o(i.CopyRAM2Flash) refers to lpc17xx_iap.o(i.GetSecNum) for GetSecNum
    lpc17xx_iap.o(i.CopyRAM2Flash) refers to lpc17xx_iap.o(i.PrepareSector) for PrepareSector
    lpc17xx_iap.o(i.CopyRAM2Flash) refers to system_lpc17xx.o(.data) for SystemCoreClock
    lpc17xx_iap.o(i.CopyRAM2Flash) refers to lpc17xx_iap.o(.data) for iap_entry
    lpc17xx_iap.o(i.EraseSector) refers to lpc17xx_iap.o(i.PrepareSector) for PrepareSector
    lpc17xx_iap.o(i.EraseSector) refers to system_lpc17xx.o(.data) for SystemCoreClock
    lpc17xx_iap.o(i.EraseSector) refers to lpc17xx_iap.o(.data) for iap_entry
    lpc17xx_iap.o(i.InvokeISP) refers to lpc17xx_iap.o(.data) for iap_entry
    lpc17xx_iap.o(i.PrepareSector) refers to lpc17xx_iap.o(.data) for iap_entry
    lpc17xx_iap.o(i.ReadBootCodeVer) refers to lpc17xx_iap.o(.data) for iap_entry
    lpc17xx_iap.o(i.ReadDeviceSerialNum) refers to lpc17xx_iap.o(.data) for iap_entry
    lpc17xx_iap.o(i.ReadPartID) refers to lpc17xx_iap.o(.data) for iap_entry
    lpc17xx_mcpwm.o(i.MCPWM_Init) refers to lpc17xx_clkpwr.o(i.CLKPWR_ConfigPPWR) for CLKPWR_ConfigPPWR
    lpc17xx_pwm.o(i.PWM_ChannelCmd) refers to lpc17xx_pwm.o(i.check_failed) for check_failed
    lpc17xx_pwm.o(i.PWM_ChannelConfig) refers to lpc17xx_pwm.o(i.check_failed) for check_failed
    lpc17xx_pwm.o(i.PWM_ClearIntPending) refers to lpc17xx_pwm.o(i.check_failed) for check_failed
    lpc17xx_pwm.o(i.PWM_Cmd) refers to lpc17xx_pwm.o(i.check_failed) for check_failed
    lpc17xx_pwm.o(i.PWM_ConfigCapture) refers to lpc17xx_pwm.o(i.check_failed) for check_failed
    lpc17xx_pwm.o(i.PWM_ConfigMatch) refers to lpc17xx_pwm.o(i.check_failed) for check_failed
    lpc17xx_pwm.o(i.PWM_ConfigStructInit) refers to lpc17xx_pwm.o(i.check_failed) for check_failed
    lpc17xx_pwm.o(i.PWM_CounterCmd) refers to lpc17xx_pwm.o(i.check_failed) for check_failed
    lpc17xx_pwm.o(i.PWM_DeInit) refers to lpc17xx_pwm.o(i.check_failed) for check_failed
    lpc17xx_pwm.o(i.PWM_DeInit) refers to lpc17xx_clkpwr.o(i.CLKPWR_ConfigPPWR) for CLKPWR_ConfigPPWR
    lpc17xx_pwm.o(i.PWM_GetCaptureValue) refers to lpc17xx_pwm.o(i.check_failed) for check_failed
    lpc17xx_pwm.o(i.PWM_GetIntStatus) refers to lpc17xx_pwm.o(i.check_failed) for check_failed
    lpc17xx_pwm.o(i.PWM_Init) refers to lpc17xx_pwm.o(i.check_failed) for check_failed
    lpc17xx_pwm.o(i.PWM_MatchUpdate) refers to lpc17xx_pwm.o(i.check_failed) for check_failed
    lpc17xx_pwm.o(i.PWM_MultiMatchUpdate) refers to lpc17xx_pwm.o(i.check_failed) for check_failed
    lpc17xx_pwm.o(i.PWM_ResetCounter) refers to lpc17xx_pwm.o(i.check_failed) for check_failed
    lpc17xx_qei.o(i.QEI_CalculateRPM) refers to lpc17xx_clkpwr.o(i.CLKPWR_GetPCLK) for CLKPWR_GetPCLK
    lpc17xx_qei.o(i.QEI_CalculateRPM) refers to lludivv7m.o(.text) for __aeabi_uldivmod
    lpc17xx_qei.o(i.QEI_DeInit) refers to lpc17xx_clkpwr.o(i.CLKPWR_ConfigPPWR) for CLKPWR_ConfigPPWR
    lpc17xx_qei.o(i.QEI_Init) refers to lpc17xx_clkpwr.o(i.CLKPWR_ConfigPPWR) for CLKPWR_ConfigPPWR
    lpc17xx_qei.o(i.QEI_Init) refers to lpc17xx_clkpwr.o(i.CLKPWR_SetPCLKDiv) for CLKPWR_SetPCLKDiv
    lpc17xx_qei.o(i.QEI_SetTimerReload) refers to lpc17xx_clkpwr.o(i.CLKPWR_GetPCLK) for CLKPWR_GetPCLK
    lpc17xx_qei.o(i.QEI_SetTimerReload) refers to lludivv7m.o(.text) for __aeabi_uldivmod
    lpc17xx_rit.o(i.RIT_Init) refers to lpc17xx_clkpwr.o(i.CLKPWR_GetPCLK) for CLKPWR_GetPCLK
    lpc17xx_rtc.o(i.RTC_AlarmIntConfig) refers to lpc17xx_rtc.o(i.check_failed) for check_failed
    lpc17xx_rtc.o(i.RTC_CalibConfig) refers to lpc17xx_rtc.o(i.check_failed) for check_failed
    lpc17xx_rtc.o(i.RTC_CalibCounterCmd) refers to lpc17xx_rtc.o(i.check_failed) for check_failed
    lpc17xx_rtc.o(i.RTC_ClearIntPending) refers to lpc17xx_rtc.o(i.check_failed) for check_failed
    lpc17xx_rtc.o(i.RTC_Cmd) refers to lpc17xx_rtc.o(i.check_failed) for check_failed
    lpc17xx_rtc.o(i.RTC_CntIncrIntConfig) refers to lpc17xx_rtc.o(i.check_failed) for check_failed
    lpc17xx_rtc.o(i.RTC_DeInit) refers to lpc17xx_rtc.o(i.check_failed) for check_failed
    lpc17xx_rtc.o(i.RTC_DeInit) refers to lpc17xx_clkpwr.o(i.CLKPWR_ConfigPPWR) for CLKPWR_ConfigPPWR
    lpc17xx_rtc.o(i.RTC_GetFullAlarmTime) refers to lpc17xx_rtc.o(i.check_failed) for check_failed
    lpc17xx_rtc.o(i.RTC_GetFullTime) refers to lpc17xx_rtc.o(i.check_failed) for check_failed
    lpc17xx_rtc.o(i.RTC_GetIntPending) refers to lpc17xx_rtc.o(i.check_failed) for check_failed
    lpc17xx_rtc.o(i.RTC_GetTime) refers to lpc17xx_rtc.o(i.check_failed) for check_failed
    lpc17xx_rtc.o(i.RTC_Init) refers to lpc17xx_rtc.o(i.check_failed) for check_failed
    lpc17xx_rtc.o(i.RTC_Init) refers to lpc17xx_clkpwr.o(i.CLKPWR_ConfigPPWR) for CLKPWR_ConfigPPWR
    lpc17xx_rtc.o(i.RTC_ReadGPREG) refers to lpc17xx_rtc.o(i.check_failed) for check_failed
    lpc17xx_rtc.o(i.RTC_ResetClockTickCounter) refers to lpc17xx_rtc.o(i.check_failed) for check_failed
    lpc17xx_rtc.o(i.RTC_SetAlarmTime) refers to lpc17xx_rtc.o(i.check_failed) for check_failed
    lpc17xx_rtc.o(i.RTC_SetFullAlarmTime) refers to lpc17xx_rtc.o(i.check_failed) for check_failed
    lpc17xx_rtc.o(i.RTC_SetFullTime) refers to lpc17xx_rtc.o(i.check_failed) for check_failed
    lpc17xx_rtc.o(i.RTC_SetTime) refers to lpc17xx_rtc.o(i.check_failed) for check_failed
    lpc17xx_rtc.o(i.RTC_WriteGPREG) refers to lpc17xx_rtc.o(i.check_failed) for check_failed
    lpc17xx_spi.o(i.SPI_CheckStatus) refers to lpc17xx_spi.o(i.check_failed) for check_failed
    lpc17xx_spi.o(i.SPI_DeInit) refers to lpc17xx_clkpwr.o(i.CLKPWR_ConfigPPWR) for CLKPWR_ConfigPPWR
    lpc17xx_spi.o(i.SPI_Init) refers to lpc17xx_spi.o(i.check_failed) for check_failed
    lpc17xx_spi.o(i.SPI_Init) refers to lpc17xx_clkpwr.o(i.CLKPWR_ConfigPPWR) for CLKPWR_ConfigPPWR
    lpc17xx_spi.o(i.SPI_Init) refers to lpc17xx_spi.o(i.SPI_SetClock) for SPI_SetClock
    lpc17xx_spi.o(i.SPI_IntCmd) refers to lpc17xx_spi.o(i.check_failed) for check_failed
    lpc17xx_spi.o(i.SPI_ReadWrite) refers to lpc17xx_spi.o(i.SPI_GetDataSize) for SPI_GetDataSize
    lpc17xx_spi.o(i.SPI_ReadWrite) refers to lpc17xx_spi.o(i.SPI_SendData) for SPI_SendData
    lpc17xx_spi.o(i.SPI_ReadWrite) refers to lpc17xx_spi.o(i.SPI_ReceiveData) for SPI_ReceiveData
    lpc17xx_spi.o(i.SPI_ReadWrite) refers to lpc17xx_spi.o(i.SPI_IntCmd) for SPI_IntCmd
    lpc17xx_spi.o(i.SPI_ReceiveData) refers to lpc17xx_spi.o(i.check_failed) for check_failed
    lpc17xx_spi.o(i.SPI_SendData) refers to lpc17xx_spi.o(i.check_failed) for check_failed
    lpc17xx_spi.o(i.SPI_SetClock) refers to lpc17xx_spi.o(i.check_failed) for check_failed
    lpc17xx_spi.o(i.SPI_SetClock) refers to lpc17xx_clkpwr.o(i.CLKPWR_GetPCLK) for CLKPWR_GetPCLK
    lpc17xx_ssp.o(i.SSP_ClearIntPending) refers to lpc17xx_ssp.o(i.check_failed) for check_failed
    lpc17xx_ssp.o(i.SSP_Cmd) refers to lpc17xx_ssp.o(i.check_failed) for check_failed
    lpc17xx_ssp.o(i.SSP_DMACmd) refers to lpc17xx_ssp.o(i.check_failed) for check_failed
    lpc17xx_ssp.o(i.SSP_DeInit) refers to lpc17xx_ssp.o(i.check_failed) for check_failed
    lpc17xx_ssp.o(i.SSP_DeInit) refers to lpc17xx_clkpwr.o(i.CLKPWR_ConfigPPWR) for CLKPWR_ConfigPPWR
    lpc17xx_ssp.o(i.SSP_GetDataSize) refers to lpc17xx_ssp.o(i.check_failed) for check_failed
    lpc17xx_ssp.o(i.SSP_GetIntStatus) refers to lpc17xx_ssp.o(i.check_failed) for check_failed
    lpc17xx_ssp.o(i.SSP_GetRawIntStatus) refers to lpc17xx_ssp.o(i.check_failed) for check_failed
    lpc17xx_ssp.o(i.SSP_GetRawIntStatusReg) refers to lpc17xx_ssp.o(i.check_failed) for check_failed
    lpc17xx_ssp.o(i.SSP_GetStatus) refers to lpc17xx_ssp.o(i.check_failed) for check_failed
    lpc17xx_ssp.o(i.SSP_Init) refers to lpc17xx_ssp.o(i.check_failed) for check_failed
    lpc17xx_ssp.o(i.SSP_Init) refers to lpc17xx_clkpwr.o(i.CLKPWR_ConfigPPWR) for CLKPWR_ConfigPPWR
    lpc17xx_ssp.o(i.SSP_Init) refers to lpc17xx_ssp.o(i.setSSPclock) for setSSPclock
    lpc17xx_ssp.o(i.SSP_IntConfig) refers to lpc17xx_ssp.o(i.check_failed) for check_failed
    lpc17xx_ssp.o(i.SSP_LoopBackCmd) refers to lpc17xx_ssp.o(i.check_failed) for check_failed
    lpc17xx_ssp.o(i.SSP_ReadWrite) refers to lpc17xx_ssp.o(i.SSP_ReceiveData) for SSP_ReceiveData
    lpc17xx_ssp.o(i.SSP_ReadWrite) refers to lpc17xx_ssp.o(i.SSP_GetDataSize) for SSP_GetDataSize
    lpc17xx_ssp.o(i.SSP_ReadWrite) refers to lpc17xx_ssp.o(i.SSP_SendData) for SSP_SendData
    lpc17xx_ssp.o(i.SSP_ReceiveData) refers to lpc17xx_ssp.o(i.check_failed) for check_failed
    lpc17xx_ssp.o(i.SSP_SendData) refers to lpc17xx_ssp.o(i.check_failed) for check_failed
    lpc17xx_ssp.o(i.SSP_SlaveOutputCmd) refers to lpc17xx_ssp.o(i.check_failed) for check_failed
    lpc17xx_ssp.o(i.setSSPclock) refers to lpc17xx_ssp.o(i.check_failed) for check_failed
    lpc17xx_ssp.o(i.setSSPclock) refers to lpc17xx_clkpwr.o(i.CLKPWR_GetPCLK) for CLKPWR_GetPCLK
    lpc17xx_uart.o(i.UART_ABClearIntPending) refers to lpc17xx_uart.o(i.check_failed) for check_failed
    lpc17xx_uart.o(i.UART_ABCmd) refers to lpc17xx_uart.o(i.check_failed) for check_failed
    lpc17xx_uart.o(i.UART_DeInit) refers to lpc17xx_uart.o(i.check_failed) for check_failed
    lpc17xx_uart.o(i.UART_DeInit) refers to lpc17xx_uart.o(i.UART_TxCmd) for UART_TxCmd
    lpc17xx_uart.o(i.UART_FIFOConfig) refers to lpc17xx_uart.o(i.check_failed) for check_failed
    lpc17xx_uart.o(i.UART_ForceBreak) refers to lpc17xx_uart.o(i.check_failed) for check_failed
    lpc17xx_uart.o(i.UART_FullModemConfigMode) refers to lpc17xx_uart.o(i.check_failed) for check_failed
    lpc17xx_uart.o(i.UART_FullModemForcePinState) refers to lpc17xx_uart.o(i.check_failed) for check_failed
    lpc17xx_uart.o(i.UART_FullModemGetStatus) refers to lpc17xx_uart.o(i.check_failed) for check_failed
    lpc17xx_uart.o(i.UART_GetIntId) refers to lpc17xx_uart.o(i.check_failed) for check_failed
    lpc17xx_uart.o(i.UART_GetLineStatus) refers to lpc17xx_uart.o(i.check_failed) for check_failed
    lpc17xx_uart.o(i.UART_Init) refers to lpc17xx_uart.o(i.check_failed) for check_failed
    lpc17xx_uart.o(i.UART_Init) refers to lpc17xx_uart.o(i.uart_set_divisors) for uart_set_divisors
    lpc17xx_uart.o(i.UART_IntConfig) refers to lpc17xx_uart.o(i.check_failed) for check_failed
    lpc17xx_uart.o(i.UART_IrDACmd) refers to lpc17xx_uart.o(i.check_failed) for check_failed
    lpc17xx_uart.o(i.UART_IrDAInvtInputCmd) refers to lpc17xx_uart.o(i.check_failed) for check_failed
    lpc17xx_uart.o(i.UART_IrDAPulseDivConfig) refers to lpc17xx_uart.o(i.check_failed) for check_failed
    lpc17xx_uart.o(i.UART_RS485Config) refers to lpc17xx_uart.o(i.check_failed) for check_failed
    lpc17xx_uart.o(i.UART_RS485Send) refers to lpc17xx_uart.o(i.UART_Send) for UART_Send
    lpc17xx_uart.o(i.UART_RS485SendData) refers to lpc17xx_uart.o(i.UART_RS485Send) for UART_RS485Send
    lpc17xx_uart.o(i.UART_RS485SendSlvAddr) refers to lpc17xx_uart.o(i.UART_RS485Send) for UART_RS485Send
    lpc17xx_uart.o(i.UART_Receive) refers to lpc17xx_uart.o(i.UART_ReceiveByte) for UART_ReceiveByte
    lpc17xx_uart.o(i.UART_ReceiveByte) refers to lpc17xx_uart.o(i.check_failed) for check_failed
    lpc17xx_uart.o(i.UART_Send) refers to lpc17xx_uart.o(i.UART_SendByte) for UART_SendByte
    lpc17xx_uart.o(i.UART_SendByte) refers to lpc17xx_uart.o(i.check_failed) for check_failed
    lpc17xx_uart.o(i.UART_TxCmd) refers to lpc17xx_uart.o(i.check_failed) for check_failed
    lpc17xx_uart.o(i.uart_set_divisors) refers to lpc17xx_clkpwr.o(i.CLKPWR_GetPCLK) for CLKPWR_GetPCLK
    lpc17xx_uart.o(i.uart_set_divisors) refers to lludivv7m.o(.text) for __aeabi_uldivmod
    lpc17xx_wdt.o(i.WDT_Init) refers to lpc17xx_wdt.o(i.WDT_SetTimeOut) for WDT_SetTimeOut
    lpc17xx_wdt.o(i.WDT_Init) refers to lpc17xx_wdt.o(i.WDT_Feed) for WDT_Feed
    lpc17xx_wdt.o(i.WDT_SetTimeOut) refers to lludivv7m.o(.text) for __aeabi_uldivmod
    lpc17xx_wdt.o(i.WDT_SetTimeOut) refers to lpc17xx_clkpwr.o(i.CLKPWR_SetPCLKDiv) for CLKPWR_SetPCLKDiv
    lpc17xx_wdt.o(i.WDT_SetTimeOut) refers to system_lpc17xx.o(.data) for SystemCoreClock
    lpc17xx_wdt.o(i.WDT_UpdateTimeOut) refers to lpc17xx_wdt.o(i.WDT_SetTimeOut) for WDT_SetTimeOut
    lpc17xx_wdt.o(i.WDT_UpdateTimeOut) refers to lpc17xx_wdt.o(i.WDT_Feed) for WDT_Feed
    cdcuser.o(i.CDC_BulkIn) refers to cdcuser.o(.data) for All_Packets_Sent
    cdcuser.o(i.CDC_BulkOut) refers to usbhw.o(i.USB_ReadEP) for USB_ReadEP
    cdcuser.o(i.CDC_BulkOut) refers to cdcuser.o(i.CDC_WrOutBuf) for CDC_WrOutBuf
    cdcuser.o(i.CDC_BulkOut) refers to cdcuser.o(.bss) for BulkBufOut
    cdcuser.o(i.CDC_GetLineCoding) refers to cdcuser.o(.data) for CDC_LineCoding
    cdcuser.o(i.CDC_GetLineCoding) refers to usbcore.o(.data) for EP0Buf
    cdcuser.o(i.CDC_GetSerialState) refers to cdcuser.o(.data) for CDC_SerialState
    cdcuser.o(i.CDC_NotificationIn) refers to usbhw.o(i.USB_WriteEP) for USB_WriteEP
    cdcuser.o(i.CDC_NotificationIn) refers to cdcuser.o(.bss) for NotificationBuf
    cdcuser.o(i.CDC_NotificationIn) refers to cdcuser.o(.data) for CDC_SerialState
    cdcuser.o(i.CDC_OutBufAvailChar) refers to cdcuser.o(.bss) for CDC_OutBuf
    cdcuser.o(i.CDC_RdOutBuf) refers to cdcuser.o(.bss) for CDC_OutBuf
    cdcuser.o(i.CDC_WrOutBuf) refers to fifo.o(i.Fifo_Write) for Fifo_Write
    cdcuser.o(i.CDC_WrOutBuf) refers to dev.o(.bss) for Usb
    usbcore.o(i.USB_DataInStage) refers to usbhw.o(i.USB_WriteEP) for USB_WriteEP
    usbcore.o(i.USB_DataInStage) refers to usbcore.o(.data) for EP0Data
    usbcore.o(i.USB_DataOutStage) refers to usbhw.o(i.USB_ReadEP) for USB_ReadEP
    usbcore.o(i.USB_DataOutStage) refers to usbcore.o(.data) for EP0Data
    usbcore.o(i.USB_EndPoint0) refers to usbcore.o(i.USB_SetupStage) for USB_SetupStage
    usbcore.o(i.USB_EndPoint0) refers to usbhw.o(i.USB_DirCtrlEP) for USB_DirCtrlEP
    usbcore.o(i.USB_EndPoint0) refers to usbcore.o(i.USB_ReqGetStatus) for USB_ReqGetStatus
    usbcore.o(i.USB_EndPoint0) refers to usbcore.o(i.USB_DataInStage) for USB_DataInStage
    usbcore.o(i.USB_EndPoint0) refers to usbcore.o(i.USB_ReqSetClrFeature) for USB_ReqSetClrFeature
    usbcore.o(i.USB_EndPoint0) refers to usbcore.o(i.USB_StatusInStage) for USB_StatusInStage
    usbcore.o(i.USB_EndPoint0) refers to usbcore.o(i.USB_ReqGetDescriptor) for USB_ReqGetDescriptor
    usbcore.o(i.USB_EndPoint0) refers to usbhw.o(i.USB_SetStallEP) for USB_SetStallEP
    usbcore.o(i.USB_EndPoint0) refers to usbcore.o(i.USB_ReqSetConfiguration) for USB_ReqSetConfiguration
    usbcore.o(i.USB_EndPoint0) refers to usbuser.o(i.USB_Configure_Event) for USB_Configure_Event
    usbcore.o(i.USB_EndPoint0) refers to usbcore.o(i.USB_ReqSetInterface) for USB_ReqSetInterface
    usbcore.o(i.USB_EndPoint0) refers to cdcuser.o(i.CDC_GetEncapsulatedResponse) for CDC_GetEncapsulatedResponse
    usbcore.o(i.USB_EndPoint0) refers to cdcuser.o(i.CDC_GetCommFeature) for CDC_GetCommFeature
    usbcore.o(i.USB_EndPoint0) refers to cdcuser.o(i.CDC_ClearCommFeature) for CDC_ClearCommFeature
    usbcore.o(i.USB_EndPoint0) refers to cdcuser.o(i.CDC_GetLineCoding) for CDC_GetLineCoding
    usbcore.o(i.USB_EndPoint0) refers to cdcuser.o(i.CDC_SetControlLineState) for CDC_SetControlLineState
    usbcore.o(i.USB_EndPoint0) refers to cdcuser.o(i.CDC_SendBreak) for CDC_SendBreak
    usbcore.o(i.USB_EndPoint0) refers to usbcore.o(i.USB_DataOutStage) for USB_DataOutStage
    usbcore.o(i.USB_EndPoint0) refers to cdcuser.o(i.CDC_SendEncapsulatedCommand) for CDC_SendEncapsulatedCommand
    usbcore.o(i.USB_EndPoint0) refers to cdcuser.o(i.CDC_SetCommFeature) for CDC_SetCommFeature
    usbcore.o(i.USB_EndPoint0) refers to cdcuser.o(i.CDC_SetLineCoding) for CDC_SetLineCoding
    usbcore.o(i.USB_EndPoint0) refers to usbcore.o(i.USB_StatusOutStage) for USB_StatusOutStage
    usbcore.o(i.USB_EndPoint0) refers to usbhw.o(i.USB_SetAddress) for USB_SetAddress
    usbcore.o(i.USB_EndPoint0) refers to usbhw.o(i.USB_ClrStallEP) for USB_ClrStallEP
    usbcore.o(i.USB_EndPoint0) refers to usbcore.o(.data) for SetupPacket
    usbcore.o(i.USB_ReqGetDescriptor) refers to usbcore.o(.data) for SetupPacket
    usbcore.o(i.USB_ReqGetDescriptor) refers to usbdesc.o(.constdata) for USB_DeviceDescriptor
    usbcore.o(i.USB_ReqGetStatus) refers to usbcore.o(.data) for SetupPacket
    usbcore.o(i.USB_ReqSetClrFeature) refers to usbhw.o(i.USB_WakeUpCfg) for USB_WakeUpCfg
    usbcore.o(i.USB_ReqSetClrFeature) refers to usbhw.o(i.USB_SetStallEP) for USB_SetStallEP
    usbcore.o(i.USB_ReqSetClrFeature) refers to usbhw.o(i.USB_ClrStallEP) for USB_ClrStallEP
    usbcore.o(i.USB_ReqSetClrFeature) refers to usbcore.o(.data) for SetupPacket
    usbcore.o(i.USB_ReqSetConfiguration) refers to usbhw.o(i.USB_DisableEP) for USB_DisableEP
    usbcore.o(i.USB_ReqSetConfiguration) refers to usbhw.o(i.USB_Configure) for USB_Configure
    usbcore.o(i.USB_ReqSetConfiguration) refers to usbhw.o(i.USB_ConfigEP) for USB_ConfigEP
    usbcore.o(i.USB_ReqSetConfiguration) refers to usbhw.o(i.USB_EnableEP) for USB_EnableEP
    usbcore.o(i.USB_ReqSetConfiguration) refers to usbhw.o(i.USB_ResetEP) for USB_ResetEP
    usbcore.o(i.USB_ReqSetConfiguration) refers to usbcore.o(.data) for SetupPacket
    usbcore.o(i.USB_ReqSetConfiguration) refers to usbdesc.o(.constdata) for USB_ConfigDescriptor
    usbcore.o(i.USB_ReqSetInterface) refers to usbhw.o(i.USB_ConfigEP) for USB_ConfigEP
    usbcore.o(i.USB_ReqSetInterface) refers to usbhw.o(i.USB_EnableEP) for USB_EnableEP
    usbcore.o(i.USB_ReqSetInterface) refers to usbhw.o(i.USB_ResetEP) for USB_ResetEP
    usbcore.o(i.USB_ReqSetInterface) refers to usbhw.o(i.USB_DisableEP) for USB_DisableEP
    usbcore.o(i.USB_ReqSetInterface) refers to usbcore.o(.data) for SetupPacket
    usbcore.o(i.USB_ReqSetInterface) refers to usbdesc.o(.constdata) for USB_ConfigDescriptor
    usbcore.o(i.USB_ResetCore) refers to usbcore.o(.data) for USB_DeviceStatus
    usbcore.o(i.USB_SetupStage) refers to usbhw.o(i.USB_ReadEP) for USB_ReadEP
    usbcore.o(i.USB_SetupStage) refers to usbcore.o(.data) for SetupPacket
    usbcore.o(i.USB_StatusInStage) refers to usbhw.o(i.USB_WriteEP) for USB_WriteEP
    usbcore.o(i.USB_StatusOutStage) refers to usbhw.o(i.USB_ReadEP) for USB_ReadEP
    usbcore.o(i.USB_StatusOutStage) refers to usbcore.o(.data) for EP0Buf
    usbhw.o(i.USB_ClearEPBuf) refers to usbhw.o(i.WrCmdEP) for WrCmdEP
    usbhw.o(i.USB_ClrStallEP) refers to usbhw.o(i.EPAdr) for EPAdr
    usbhw.o(i.USB_ClrStallEP) refers to usbhw.o(i.WrCmdDat) for WrCmdDat
    usbhw.o(i.USB_ConfigEP) refers to usbhw.o(i.EPAdr) for EPAdr
    usbhw.o(i.USB_Configure) refers to usbhw.o(i.WrCmdDat) for WrCmdDat
    usbhw.o(i.USB_Connect) refers to usbhw.o(i.WrCmdDat) for WrCmdDat
    usbhw.o(i.USB_DisableEP) refers to usbhw.o(i.EPAdr) for EPAdr
    usbhw.o(i.USB_DisableEP) refers to usbhw.o(i.WrCmdDat) for WrCmdDat
    usbhw.o(i.USB_EnableEP) refers to usbhw.o(i.EPAdr) for EPAdr
    usbhw.o(i.USB_EnableEP) refers to usbhw.o(i.WrCmdDat) for WrCmdDat
    usbhw.o(i.USB_GetFrame) refers to usbhw.o(i.WrCmd) for WrCmd
    usbhw.o(i.USB_GetFrame) refers to usbhw.o(i.RdCmdDat) for RdCmdDat
    usbhw.o(i.USB_IRQHandler) refers to usbhw.o(i.WrCmd) for WrCmd
    usbhw.o(i.USB_IRQHandler) refers to usbhw.o(i.RdCmdDat) for RdCmdDat
    usbhw.o(i.USB_IRQHandler) refers to usbhw.o(i.USB_Reset) for USB_Reset
    usbhw.o(i.USB_IRQHandler) refers to usbuser.o(i.USB_Reset_Event) for USB_Reset_Event
    usbhw.o(i.USB_IRQHandler) refers to usbhw.o(i.USB_Suspend) for USB_Suspend
    usbhw.o(i.USB_IRQHandler) refers to usbhw.o(i.USB_Resume) for USB_Resume
    usbhw.o(i.USB_IRQHandler) refers to usbuser.o(.constdata) for USB_P_EP
    usbhw.o(i.USB_Init) refers to usbhw.o(i.USB_Reset) for USB_Reset
    usbhw.o(i.USB_Init) refers to usbhw.o(i.USB_SetAddress) for USB_SetAddress
    usbhw.o(i.USB_ReadEP) refers to usbhw.o(i.WrCmdEP) for WrCmdEP
    usbhw.o(i.USB_ResetEP) refers to usbhw.o(i.EPAdr) for EPAdr
    usbhw.o(i.USB_ResetEP) refers to usbhw.o(i.WrCmdDat) for WrCmdDat
    usbhw.o(i.USB_SetAddress) refers to usbhw.o(i.WrCmdDat) for WrCmdDat
    usbhw.o(i.USB_SetStallEP) refers to usbhw.o(i.EPAdr) for EPAdr
    usbhw.o(i.USB_SetStallEP) refers to usbhw.o(i.WrCmdDat) for WrCmdDat
    usbhw.o(i.USB_WakeUp) refers to usbhw.o(i.WrCmdDat) for WrCmdDat
    usbhw.o(i.USB_WakeUp) refers to usbcore.o(.data) for USB_DeviceStatus
    usbhw.o(i.USB_WriteEP) refers to usbhw.o(i.WrCmdEP) for WrCmdEP
    usbhw.o(i.WrCmdEP) refers to usbhw.o(i.EPAdr) for EPAdr
    usbuser.o(i.USB_EndPoint1) refers to cdcuser.o(i.CDC_GetSerialState) for CDC_GetSerialState
    usbuser.o(i.USB_EndPoint1) refers to cdcuser.o(i.CDC_NotificationIn) for CDC_NotificationIn
    usbuser.o(i.USB_EndPoint1) refers to usbuser.o(.data) for serialState
    usbuser.o(i.USB_EndPoint2) refers to cdcuser.o(i.CDC_BulkOut) for CDC_BulkOut
    usbuser.o(i.USB_EndPoint2) refers to cdcuser.o(i.CDC_BulkIn) for CDC_BulkIn
    usbuser.o(i.USB_Reset_Event) refers to usbcore.o(i.USB_ResetCore) for USB_ResetCore
    usbuser.o(.constdata) refers to usbcore.o(i.USB_EndPoint0) for USB_EndPoint0
    usbuser.o(.constdata) refers to usbuser.o(i.USB_EndPoint1) for USB_EndPoint1
    usbuser.o(.constdata) refers to usbuser.o(i.USB_EndPoint2) for USB_EndPoint2
    uart.o(i.UART1_IRQHandler) refers to uart.o(.bss) for ser_in
    uart.o(i.UART1_IRQHandler) refers to uart.o(.data) for ser_txRestart
    uart.o(i.ser_AvailChar) refers to uart.o(.bss) for ser_in
    uart.o(i.ser_ClosePort) refers to uart.o(i.NVIC_DisableIRQ) for NVIC_DisableIRQ
    uart.o(i.ser_InitPort0) refers to uart.o(i.NVIC_EnableIRQ) for NVIC_EnableIRQ
    uart.o(i.ser_InitPort0) refers to uart.o(.bss) for ser_out
    uart.o(i.ser_InitPort0) refers to system_lpc17xx.o(.data) for SystemCoreClock
    uart.o(i.ser_InitPort0) refers to uart.o(.data) for ser_txRestart
    uart.o(i.ser_InitPort1) refers to uart.o(i.NVIC_EnableIRQ) for NVIC_EnableIRQ
    uart.o(i.ser_InitPort1) refers to uart.o(.bss) for ser_out
    uart.o(i.ser_InitPort1) refers to system_lpc17xx.o(.data) for SystemCoreClock
    uart.o(i.ser_InitPort1) refers to uart.o(.data) for ser_txRestart
    uart.o(i.ser_LineState) refers to uart.o(.data) for ser_lineState
    uart.o(i.ser_OpenPort) refers to uart.o(i.NVIC_DisableIRQ) for NVIC_DisableIRQ
    uart.o(i.ser_Read) refers to uart.o(.bss) for ser_in
    uart.o(i.ser_Write) refers to uart.o(.bss) for ser_out
    uart.o(i.ser_Write) refers to uart.o(.data) for ser_txRestart
    vsnprintf.o(.text) refers (Special) to _printf_a.o(.ARM.Collect$$_printf_percent$$00000006) for _printf_a
    vsnprintf.o(.text) refers (Special) to _printf_c.o(.ARM.Collect$$_printf_percent$$00000013) for _printf_c
    vsnprintf.o(.text) refers (Special) to _printf_charcount.o(.text) for _printf_charcount
    vsnprintf.o(.text) refers (Special) to _printf_d.o(.ARM.Collect$$_printf_percent$$00000009) for _printf_d
    vsnprintf.o(.text) refers (Special) to _printf_e.o(.ARM.Collect$$_printf_percent$$00000004) for _printf_e
    vsnprintf.o(.text) refers (Special) to _printf_f.o(.ARM.Collect$$_printf_percent$$00000003) for _printf_f
    vsnprintf.o(.text) refers (Special) to printf1.o(x$fpl$printf1) for _printf_fp_dec
    vsnprintf.o(.text) refers (Special) to printf2.o(x$fpl$printf2) for _printf_fp_hex
    vsnprintf.o(.text) refers (Special) to _printf_g.o(.ARM.Collect$$_printf_percent$$00000005) for _printf_g
    vsnprintf.o(.text) refers (Special) to _printf_i.o(.ARM.Collect$$_printf_percent$$00000008) for _printf_i
    vsnprintf.o(.text) refers (Special) to _printf_dec.o(.text) for _printf_int_dec
    vsnprintf.o(.text) refers (Special) to _printf_l.o(.ARM.Collect$$_printf_percent$$00000012) for _printf_l
    vsnprintf.o(.text) refers (Special) to _printf_lc.o(.ARM.Collect$$_printf_percent$$00000015) for _printf_lc
    vsnprintf.o(.text) refers (Special) to _printf_ll.o(.ARM.Collect$$_printf_percent$$00000007) for _printf_ll
    vsnprintf.o(.text) refers (Special) to _printf_lld.o(.ARM.Collect$$_printf_percent$$0000000E) for _printf_lld
    vsnprintf.o(.text) refers (Special) to _printf_lli.o(.ARM.Collect$$_printf_percent$$0000000D) for _printf_lli
    vsnprintf.o(.text) refers (Special) to _printf_llo.o(.ARM.Collect$$_printf_percent$$00000010) for _printf_llo
    vsnprintf.o(.text) refers (Special) to _printf_llu.o(.ARM.Collect$$_printf_percent$$0000000F) for _printf_llu
    vsnprintf.o(.text) refers (Special) to _printf_llx.o(.ARM.Collect$$_printf_percent$$00000011) for _printf_llx
    vsnprintf.o(.text) refers (Special) to _printf_longlong_dec.o(.text) for _printf_longlong_dec
    vsnprintf.o(.text) refers (Special) to _printf_hex_int_ll_ptr.o(.text) for _printf_longlong_hex
    vsnprintf.o(.text) refers (Special) to _printf_oct_int_ll.o(.text) for _printf_longlong_oct
    vsnprintf.o(.text) refers (Special) to _printf_ls.o(.ARM.Collect$$_printf_percent$$00000016) for _printf_ls
    vsnprintf.o(.text) refers (Special) to _printf_n.o(.ARM.Collect$$_printf_percent$$00000001) for _printf_n
    vsnprintf.o(.text) refers (Special) to _printf_o.o(.ARM.Collect$$_printf_percent$$0000000B) for _printf_o
    vsnprintf.o(.text) refers (Special) to _printf_p.o(.ARM.Collect$$_printf_percent$$00000002) for _printf_p
    vsnprintf.o(.text) refers (Special) to _printf_percent.o(.ARM.Collect$$_printf_percent$$00000000) for _printf_percent
    vsnprintf.o(.text) refers (Special) to _printf_pad.o(.text) for _printf_post_padding
    vsnprintf.o(.text) refers (Special) to _printf_s.o(.ARM.Collect$$_printf_percent$$00000014) for _printf_s
    vsnprintf.o(.text) refers (Special) to _printf_str.o(.text) for _printf_str
    vsnprintf.o(.text) refers (Special) to _printf_truncate.o(.text) for _printf_truncate_signed
    vsnprintf.o(.text) refers (Special) to _printf_u.o(.ARM.Collect$$_printf_percent$$0000000A) for _printf_u
    vsnprintf.o(.text) refers (Special) to _printf_wctomb.o(.text) for _printf_wctomb
    vsnprintf.o(.text) refers (Special) to _printf_x.o(.ARM.Collect$$_printf_percent$$0000000C) for _printf_x
    vsnprintf.o(.text) refers to _printf_char_common.o(.text) for _printf_char_common
    vsnprintf.o(.text) refers to _sputc.o(.text) for _sputc
    vsnprintf.o(.text) refers to _snputc.o(.text) for _snputc
    __2sprintf.o(.text) refers to _printf_char_common.o(.text) for _printf_char_common
    __2sprintf.o(.text) refers to _sputc.o(.text) for _sputc
    noretval__2sprintf.o(.text) refers to _printf_char_common.o(.text) for _printf_char_common
    noretval__2sprintf.o(.text) refers to _sputc.o(.text) for _sputc
    __printf.o(.text) refers to _printf_percent.o(.ARM.Collect$$_printf_percent$$00000000) for _printf_percent
    _printf_dec.o(.text) refers (Weak) to _printf_truncate.o(.text) for _printf_truncate_signed
    _printf_dec.o(.text) refers (Weak) to _printf_truncate.o(.text) for _printf_truncate_unsigned
    _printf_dec.o(.text) refers to _printf_intcommon.o(.text) for _printf_int_common
    _printf_hex_ll.o(.text) refers to _printf_intcommon.o(.text) for _printf_int_common
    _printf_hex_ll.o(.text) refers to _printf_hex_ll.o(.constdata) for .constdata
    _printf_hex_int.o(.text) refers (Weak) to _printf_truncate.o(.text) for _printf_truncate_unsigned
    _printf_hex_int.o(.text) refers to _printf_intcommon.o(.text) for _printf_int_common
    _printf_hex_int.o(.text) refers to _printf_hex_int.o(.constdata) for .constdata
    _printf_hex_int_ll.o(.text) refers to _printf_intcommon.o(.text) for _printf_int_common
    _printf_hex_int_ll.o(.text) refers (Weak) to _printf_truncate.o(.text) for _printf_truncate_unsigned
    _printf_hex_int_ll.o(.text) refers to _printf_hex_int_ll.o(.constdata) for .constdata
    _printf_hex_ptr.o(.text) refers to _printf_intcommon.o(.text) for _printf_int_common
    _printf_hex_ptr.o(.text) refers to _printf_hex_ptr.o(.constdata) for .constdata
    _printf_hex_int_ptr.o(.text) refers to _printf_intcommon.o(.text) for _printf_int_common
    _printf_hex_int_ptr.o(.text) refers (Weak) to _printf_truncate.o(.text) for _printf_truncate_unsigned
    _printf_hex_int_ptr.o(.text) refers to _printf_hex_int_ptr.o(.constdata) for .constdata
    _printf_hex_ll_ptr.o(.text) refers to _printf_intcommon.o(.text) for _printf_int_common
    _printf_hex_ll_ptr.o(.text) refers to _printf_hex_ll_ptr.o(.constdata) for .constdata
    _printf_hex_int_ll_ptr.o(.text) refers to _printf_intcommon.o(.text) for _printf_int_common
    _printf_hex_int_ll_ptr.o(.text) refers (Weak) to _printf_truncate.o(.text) for _printf_truncate_unsigned
    _printf_hex_int_ll_ptr.o(.text) refers to _printf_hex_int_ll_ptr.o(.constdata) for .constdata
    __printf_flags.o(.text) refers to _printf_percent.o(.ARM.Collect$$_printf_percent$$00000000) for _printf_percent
    __printf_flags.o(.text) refers to __printf_flags.o(.constdata) for .constdata
    __printf_ss.o(.text) refers to _printf_percent.o(.ARM.Collect$$_printf_percent$$00000000) for _printf_percent
    __printf_flags_ss.o(.text) refers to _printf_percent.o(.ARM.Collect$$_printf_percent$$00000000) for _printf_percent
    __printf_flags_ss.o(.text) refers to __printf_flags_ss.o(.constdata) for .constdata
    __printf_wp.o(.text) refers to __printf_wp.o(i._is_digit) for _is_digit
    __printf_wp.o(.text) refers to _printf_percent.o(.ARM.Collect$$_printf_percent$$00000000) for _printf_percent
    __printf_flags_wp.o(.text) refers to __printf_wp.o(i._is_digit) for _is_digit
    __printf_flags_wp.o(.text) refers to _printf_percent.o(.ARM.Collect$$_printf_percent$$00000000) for _printf_percent
    __printf_flags_wp.o(.text) refers to __printf_flags_wp.o(.constdata) for .constdata
    __printf_ss_wp.o(.text) refers to __printf_wp.o(i._is_digit) for _is_digit
    __printf_ss_wp.o(.text) refers to _printf_percent.o(.ARM.Collect$$_printf_percent$$00000000) for _printf_percent
    __printf_flags_ss_wp.o(.text) refers to __printf_wp.o(i._is_digit) for _is_digit
    __printf_flags_ss_wp.o(.text) refers to _printf_percent.o(.ARM.Collect$$_printf_percent$$00000000) for _printf_percent
    __printf_flags_ss_wp.o(.text) refers to __printf_flags_ss_wp.o(.constdata) for .constdata
    _printf_x.o(.ARM.Collect$$_printf_percent$$0000000C) refers (Weak) to _printf_hex_int_ll_ptr.o(.text) for _printf_int_hex
    _printf_d.o(.ARM.Collect$$_printf_percent$$00000009) refers (Weak) to _printf_dec.o(.text) for _printf_int_dec
    _printf_f.o(.ARM.Collect$$_printf_percent$$00000003) refers (Weak) to printf1.o(x$fpl$printf1) for _printf_fp_dec
    _printf_percent.o(.ARM.Collect$$_printf_percent$$00000000) refers (Special) to _printf_percent_end.o(.ARM.Collect$$_printf_percent$$00000017) for _printf_percent_end
    atoi.o(.text) refers to rt_errno_addr_intlibspace.o(.text) for __aeabi_errno_addr
    atoi.o(.text) refers to strtol.o(.text) for strtol
    strtok.o(.text) refers to strtok_int.o(.text) for __strtok_internal
    strtok.o(.text) refers to strtok.o(.data) for .data
    rt_memclr.o(.text) refers to rt_memclr_w.o(.text) for _memset_w
    __main.o(!!!main) refers to __rtentry.o(.ARM.Collect$$rtentry$$00000000) for __rt_entry
    f2d.o(x$fpl$f2d) refers (Special) to usenofp.o(x$fpl$usenofp) for __I$use$fp
    f2d.o(x$fpl$f2d) refers to fnaninf.o(x$fpl$fnaninf) for __fpl_fnaninf
    f2d.o(x$fpl$f2d) refers to dretinf.o(x$fpl$dretinf) for __fpl_dretinf
    fflt_clz.o(x$fpl$ffltu) refers (Special) to usenofp.o(x$fpl$usenofp) for __I$use$fp
    fflt_clz.o(x$fpl$fflt) refers (Special) to usenofp.o(x$fpl$usenofp) for __I$use$fp
    fflt_clz.o(x$fpl$ffltn) refers (Special) to usenofp.o(x$fpl$usenofp) for __I$use$fp
    printf1.o(x$fpl$printf1) refers to _printf_fp_dec.o(.text) for _printf_fp_dec_real
    __rtentry.o(.ARM.Collect$$rtentry$$00000000) refers (Special) to __rtentry2.o(.ARM.Collect$$rtentry$$0000000A) for __rt_entry_li
    __rtentry.o(.ARM.Collect$$rtentry$$00000000) refers (Special) to __rtentry2.o(.ARM.Collect$$rtentry$$0000000D) for __rt_entry_main
    __rtentry.o(.ARM.Collect$$rtentry$$00000000) refers (Special) to __rtentry2.o(.ARM.Collect$$rtentry$$0000000C) for __rt_entry_postli_1
    __rtentry.o(.ARM.Collect$$rtentry$$00000000) refers (Special) to __rtentry2.o(.ARM.Collect$$rtentry$$00000009) for __rt_entry_postsh_1
    __rtentry.o(.ARM.Collect$$rtentry$$00000000) refers (Special) to __rtentry2.o(.ARM.Collect$$rtentry$$00000002) for __rt_entry_presh_1
    __rtentry.o(.ARM.Collect$$rtentry$$00000000) refers (Special) to __rtentry4.o(.ARM.Collect$$rtentry$$00000004) for __rt_entry_sh
    aeabi_ldiv0_sigfpe.o(.text) refers to rt_div0.o(.text) for __rt_div0
    rt_errno_addr.o(.text) refers to rt_errno_addr.o(.bss) for __aeabi_errno_addr_data
    rt_errno_addr_intlibspace.o(.text) refers to libspace.o(.bss) for __libspace_start
    _printf_str.o(.text) refers (Special) to _printf_char.o(.text) for _printf_cs_common
    _printf_str.o(.text) refers (Weak) to _printf_pad.o(.text) for _printf_pre_padding
    _printf_str.o(.text) refers (Weak) to _printf_pad.o(.text) for _printf_post_padding
    _printf_intcommon.o(.text) refers (Weak) to _printf_pad.o(.text) for _printf_pre_padding
    _printf_intcommon.o(.text) refers (Weak) to _printf_pad.o(.text) for _printf_pre_padding
    _printf_intcommon.o(.text) refers (Weak) to _printf_pad.o(.text) for _printf_post_padding
    _printf_fp_dec.o(.text) refers (Special) to usenofp.o(x$fpl$usenofp) for __I$use$fp
    _printf_fp_dec.o(.text) refers (Special) to lc_numeric_c.o(locale$$code) for _get_lc_numeric
    _printf_fp_dec.o(.text) refers to bigflt0.o(.text) for _btod_etento
    _printf_fp_dec.o(.text) refers to btod.o(CL$$btod_d2e) for _btod_d2e
    _printf_fp_dec.o(.text) refers to btod.o(CL$$btod_ediv) for _btod_ediv
    _printf_fp_dec.o(.text) refers to btod.o(CL$$btod_emul) for _btod_emul
    _printf_fp_dec.o(.text) refers to lludiv10.o(.text) for _ll_udiv10
    _printf_fp_dec.o(.text) refers to fpclassify.o(i.__ARM_fpclassify) for __ARM_fpclassify
    _printf_fp_dec.o(.text) refers to _printf_fp_infnan.o(.text) for _printf_fp_infnan
    _printf_fp_dec.o(.text) refers (Weak) to _printf_pad.o(.text) for _printf_pre_padding
    _printf_fp_dec.o(.text) refers (Weak) to _printf_pad.o(.text) for _printf_pre_padding
    _printf_fp_dec.o(.text) refers to rt_locale_intlibspace.o(.text) for __rt_locale
    _printf_fp_dec.o(.text) refers (Weak) to _printf_pad.o(.text) for _printf_post_padding
    _printf_char_common.o(.text) refers to __printf_flags_ss_wp.o(.text) for __printf
    _printf_wctomb.o(.text) refers (Special) to _printf_wchar.o(.text) for _printf_lcs_common
    _printf_wctomb.o(.text) refers to _wcrtomb.o(.text) for _wcrtomb
    _printf_wctomb.o(.text) refers (Weak) to _printf_pad.o(.text) for _printf_pre_padding
    _printf_wctomb.o(.text) refers (Weak) to _printf_pad.o(.text) for _printf_post_padding
    _printf_wctomb.o(.text) refers to _printf_wctomb.o(.constdata) for .constdata
    _printf_wctomb.o(.constdata) refers (Special) to _printf_wchar.o(.text) for _printf_lcs_common
    _printf_longlong_dec.o(.text) refers to lludiv10.o(.text) for _ll_udiv10
    _printf_longlong_dec.o(.text) refers to _printf_intcommon.o(.text) for _printf_int_common
    _printf_oct_ll.o(.text) refers to _printf_intcommon.o(.text) for _printf_int_common
    _printf_oct_int.o(.text) refers (Weak) to _printf_truncate.o(.text) for _printf_truncate_unsigned
    _printf_oct_int.o(.text) refers to _printf_intcommon.o(.text) for _printf_int_common
    _printf_oct_int_ll.o(.text) refers to _printf_intcommon.o(.text) for _printf_int_common
    _printf_oct_int_ll.o(.text) refers (Weak) to _printf_truncate.o(.text) for _printf_truncate_unsigned
    _printf_c.o(.ARM.Collect$$_printf_percent$$00000013) refers (Weak) to _printf_char.o(.text) for _printf_char
    _printf_s.o(.ARM.Collect$$_printf_percent$$00000014) refers (Weak) to _printf_char.o(.text) for _printf_string
    _printf_n.o(.ARM.Collect$$_printf_percent$$00000001) refers (Weak) to _printf_charcount.o(.text) for _printf_charcount
    _printf_p.o(.ARM.Collect$$_printf_percent$$00000002) refers (Weak) to _printf_hex_int_ll_ptr.o(.text) for _printf_hex_ptr
    _printf_o.o(.ARM.Collect$$_printf_percent$$0000000B) refers (Weak) to _printf_oct_int_ll.o(.text) for _printf_int_oct
    _printf_i.o(.ARM.Collect$$_printf_percent$$00000008) refers (Weak) to _printf_dec.o(.text) for _printf_int_dec
    _printf_u.o(.ARM.Collect$$_printf_percent$$0000000A) refers (Weak) to _printf_dec.o(.text) for _printf_int_dec
    _printf_e.o(.ARM.Collect$$_printf_percent$$00000004) refers (Weak) to printf1.o(x$fpl$printf1) for _printf_fp_dec
    _printf_g.o(.ARM.Collect$$_printf_percent$$00000005) refers (Weak) to printf1.o(x$fpl$printf1) for _printf_fp_dec
    _printf_a.o(.ARM.Collect$$_printf_percent$$00000006) refers (Weak) to printf2.o(x$fpl$printf2) for _printf_fp_hex
    _printf_lli.o(.ARM.Collect$$_printf_percent$$0000000D) refers (Special) to _printf_ll.o(.ARM.Collect$$_printf_percent$$00000007) for _printf_ll
    _printf_lli.o(.ARM.Collect$$_printf_percent$$0000000D) refers (Weak) to _printf_longlong_dec.o(.text) for _printf_longlong_dec
    _printf_lld.o(.ARM.Collect$$_printf_percent$$0000000E) refers (Special) to _printf_ll.o(.ARM.Collect$$_printf_percent$$00000007) for _printf_ll
    _printf_lld.o(.ARM.Collect$$_printf_percent$$0000000E) refers (Weak) to _printf_longlong_dec.o(.text) for _printf_longlong_dec
    _printf_llu.o(.ARM.Collect$$_printf_percent$$0000000F) refers (Special) to _printf_ll.o(.ARM.Collect$$_printf_percent$$00000007) for _printf_ll
    _printf_llu.o(.ARM.Collect$$_printf_percent$$0000000F) refers (Weak) to _printf_longlong_dec.o(.text) for _printf_longlong_dec
    _printf_lc.o(.ARM.Collect$$_printf_percent$$00000015) refers (Special) to _printf_l.o(.ARM.Collect$$_printf_percent$$00000012) for _printf_l
    _printf_lc.o(.ARM.Collect$$_printf_percent$$00000015) refers (Weak) to _printf_wchar.o(.text) for _printf_wchar
    _printf_ls.o(.ARM.Collect$$_printf_percent$$00000016) refers (Special) to _printf_l.o(.ARM.Collect$$_printf_percent$$00000012) for _printf_l
    _printf_ls.o(.ARM.Collect$$_printf_percent$$00000016) refers (Weak) to _printf_wchar.o(.text) for _printf_wstring
    _printf_llo.o(.ARM.Collect$$_printf_percent$$00000010) refers (Special) to _printf_ll.o(.ARM.Collect$$_printf_percent$$00000007) for _printf_ll
    _printf_llo.o(.ARM.Collect$$_printf_percent$$00000010) refers (Weak) to _printf_oct_int_ll.o(.text) for _printf_ll_oct
    _printf_llx.o(.ARM.Collect$$_printf_percent$$00000011) refers (Special) to _printf_ll.o(.ARM.Collect$$_printf_percent$$00000007) for _printf_ll
    _printf_llx.o(.ARM.Collect$$_printf_percent$$00000011) refers (Weak) to _printf_hex_int_ll_ptr.o(.text) for _printf_ll_hex
    strtol.o(.text) refers to rt_ctype_table.o(.text) for __rt_ctype_table
    strtol.o(.text) refers to _strtoul.o(.text) for _strtoul
    strtol.o(.text) refers to rt_errno_addr_intlibspace.o(.text) for __aeabi_errno_addr
    strtok_int.o(.text) refers to strspn.o(.text) for strspn
    strtok_int.o(.text) refers to strcspn.o(.text) for strcspn
    dretinf.o(x$fpl$dretinf) refers (Special) to usenofp.o(x$fpl$usenofp) for __I$use$fp
    fnaninf.o(x$fpl$fnaninf) refers (Special) to usenofp.o(x$fpl$usenofp) for __I$use$fp
    printf2.o(x$fpl$printf2) refers to _printf_fp_hex.o(.text) for _printf_fp_hex_real
    printf2b.o(x$fpl$printf2) refers to _printf_fp_hex.o(.text) for _printf_fp_hex_real
    libspace.o(.text) refers to libspace.o(.bss) for __libspace_start
    __rtentry2.o(.ARM.Collect$$rtentry$$00000008) refers to boardinit2.o(.text) for _platform_post_stackheap_init
    __rtentry2.o(.ARM.Collect$$rtentry$$0000000A) refers to libinit.o(.ARM.Collect$$libinit$$00000000) for __rt_lib_init
    __rtentry2.o(.ARM.Collect$$rtentry$$0000000B) refers to boardinit3.o(.text) for _platform_post_lib_init
    __rtentry2.o(.ARM.Collect$$rtentry$$0000000D) refers to main.o(i.main) for main
    __rtentry2.o(.ARM.Collect$$rtentry$$0000000D) refers to exit.o(.text) for exit
    __rtentry2.o(.ARM.exidx) refers to __rtentry2.o(.ARM.Collect$$rtentry$$00000001) for .ARM.Collect$$rtentry$$00000001
    __rtentry2.o(.ARM.exidx) refers to __rtentry2.o(.ARM.Collect$$rtentry$$00000008) for .ARM.Collect$$rtentry$$00000008
    __rtentry2.o(.ARM.exidx) refers to __rtentry2.o(.ARM.Collect$$rtentry$$0000000A) for .ARM.Collect$$rtentry$$0000000A
    __rtentry2.o(.ARM.exidx) refers to __rtentry2.o(.ARM.Collect$$rtentry$$0000000B) for .ARM.Collect$$rtentry$$0000000B
    __rtentry2.o(.ARM.exidx) refers to __rtentry2.o(.ARM.Collect$$rtentry$$0000000D) for .ARM.Collect$$rtentry$$0000000D
    __rtentry4.o(.ARM.Collect$$rtentry$$00000004) refers to sys_stackheap_outer.o(.text) for __user_setup_stackheap
    __rtentry4.o(.ARM.exidx) refers to __rtentry4.o(.ARM.Collect$$rtentry$$00000004) for .ARM.Collect$$rtentry$$00000004
    rt_ctype_table.o(.text) refers to rt_locale_intlibspace.o(.text) for __rt_locale
    rt_ctype_table.o(.text) refers to lc_ctype_c.o(locale$$code) for _get_lc_ctype
    rt_div0.o(.text) refers to defsig_fpe_outer.o(.text) for __rt_SIGFPE
    rt_locale.o(.text) refers to rt_locale.o(.bss) for __rt_locale_data
    rt_locale_intlibspace.o(.text) refers to libspace.o(.bss) for __libspace_start
    _printf_fp_hex.o(.text) refers (Special) to usenofp.o(x$fpl$usenofp) for __I$use$fp
    _printf_fp_hex.o(.text) refers to fpclassify.o(i.__ARM_fpclassify) for __ARM_fpclassify
    _printf_fp_hex.o(.text) refers to _printf_fp_infnan.o(.text) for _printf_fp_infnan
    _printf_fp_hex.o(.text) refers (Weak) to _printf_pad.o(.text) for _printf_pre_padding
    _printf_fp_hex.o(.text) refers (Weak) to _printf_pad.o(.text) for _printf_pre_padding
    _printf_fp_hex.o(.text) refers (Weak) to _printf_pad.o(.text) for _printf_post_padding
    _printf_fp_hex.o(.text) refers to _printf_fp_hex.o(.constdata) for .constdata
    _printf_fp_hex.o(.constdata) refers (Special) to usenofp.o(x$fpl$usenofp) for __I$use$fp
    _printf_fp_infnan.o(.text) refers (Weak) to _printf_pad.o(.text) for _printf_pre_padding
    _printf_fp_infnan.o(.text) refers (Weak) to _printf_pad.o(.text) for _printf_post_padding
    _printf_char.o(.text) refers (Weak) to _printf_str.o(.text) for _printf_str
    _printf_wchar.o(.text) refers (Weak) to _printf_wctomb.o(.text) for _printf_wctomb
    _strtoul.o(.text) refers to _chval.o(.text) for _chval
    _strtoul.o(.text) refers to rt_errno_addr_intlibspace.o(.text) for __aeabi_errno_addr
    bigflt0.o(.text) refers (Special) to usenofp.o(x$fpl$usenofp) for __I$use$fp
    bigflt0.o(.text) refers to btod.o(CL$$btod_emul) for _btod_emul
    bigflt0.o(.text) refers to btod.o(CL$$btod_ediv) for _btod_ediv
    bigflt0.o(.text) refers to bigflt0.o(.constdata) for .constdata
    bigflt0.o(.constdata) refers (Special) to usenofp.o(x$fpl$usenofp) for __I$use$fp
    btod.o(CL$$btod_d2e) refers (Special) to usenofp.o(x$fpl$usenofp) for __I$use$fp
    btod.o(CL$$btod_d2e) refers to btod.o(CL$$btod_d2e_norm_op1) for _d2e_norm_op1
    btod.o(CL$$btod_d2e_norm_op1) refers (Special) to usenofp.o(x$fpl$usenofp) for __I$use$fp
    btod.o(CL$$btod_d2e_norm_op1) refers to btod.o(CL$$btod_d2e_denorm_low) for _d2e_denorm_low
    btod.o(CL$$btod_d2e_denorm_low) refers (Special) to usenofp.o(x$fpl$usenofp) for __I$use$fp
    btod.o(CL$$btod_emul) refers (Special) to usenofp.o(x$fpl$usenofp) for __I$use$fp
    btod.o(CL$$btod_emul) refers to btod.o(CL$$btod_mult_common) for __btod_mult_common
    btod.o(CL$$btod_emul) refers to btod.o(CL$$btod_e2e) for _e2e
    btod.o(CL$$btod_ediv) refers (Special) to usenofp.o(x$fpl$usenofp) for __I$use$fp
    btod.o(CL$$btod_ediv) refers to btod.o(CL$$btod_div_common) for __btod_div_common
    btod.o(CL$$btod_ediv) refers to btod.o(CL$$btod_e2e) for _e2e
    btod.o(CL$$btod_emuld) refers (Special) to usenofp.o(x$fpl$usenofp) for __I$use$fp
    btod.o(CL$$btod_emuld) refers to btod.o(CL$$btod_mult_common) for __btod_mult_common
    btod.o(CL$$btod_emuld) refers to btod.o(CL$$btod_e2d) for _e2d
    btod.o(CL$$btod_edivd) refers (Special) to usenofp.o(x$fpl$usenofp) for __I$use$fp
    btod.o(CL$$btod_edivd) refers to btod.o(CL$$btod_div_common) for __btod_div_common
    btod.o(CL$$btod_edivd) refers to btod.o(CL$$btod_e2d) for _e2d
    btod.o(CL$$btod_e2e) refers (Special) to usenofp.o(x$fpl$usenofp) for __I$use$fp
    btod.o(CL$$btod_e2d) refers (Special) to usenofp.o(x$fpl$usenofp) for __I$use$fp
    btod.o(CL$$btod_e2d) refers to btod.o(CL$$btod_e2e) for _e2e
    btod.o(CL$$btod_mult_common) refers (Special) to usenofp.o(x$fpl$usenofp) for __I$use$fp
    btod.o(CL$$btod_div_common) refers (Special) to usenofp.o(x$fpl$usenofp) for __I$use$fp
    _wcrtomb.o(.text) refers to rt_ctype_table.o(.text) for __rt_ctype_table
    lc_numeric_c.o(locale$$data) refers (Special) to libinit2.o(.ARM.Collect$$libinit$$00000016) for __rt_lib_init_lc_numeric_2
    lc_numeric_c.o(locale$$code) refers (Special) to libinit2.o(.ARM.Collect$$libinit$$00000016) for __rt_lib_init_lc_numeric_2
    lc_numeric_c.o(locale$$code) refers to strcmpv7m.o(.text) for strcmp
    lc_numeric_c.o(locale$$code) refers to lc_numeric_c.o(locale$$data) for __lcnum_c_name
    istatus.o(x$fpl$ieeestatus) refers (Special) to usenofp.o(x$fpl$usenofp) for __I$use$fp
    fpclassify.o(i.__ARM_fpclassify) refers (Special) to usenofp.o(x$fpl$usenofp) for __I$use$fp
    sys_stackheap_outer.o(.text) refers to libspace.o(.text) for __user_perproc_libspace
    sys_stackheap_outer.o(.text) refers to startup_lpc17xx.o(.text) for __user_initial_stackheap
    lc_ctype_c.o(locale$$data) refers (Special) to libinit2.o(.ARM.Collect$$libinit$$00000012) for __rt_lib_init_lc_ctype_2
    lc_ctype_c.o(locale$$code) refers (Special) to libinit2.o(.ARM.Collect$$libinit$$00000012) for __rt_lib_init_lc_ctype_2
    lc_ctype_c.o(locale$$code) refers to strcmpv7m.o(.text) for strcmp
    lc_ctype_c.o(locale$$code) refers to lc_ctype_c.o(locale$$data) for __lcctype_c_name
    exit.o(.text) refers to rtexit.o(.ARM.Collect$$rtexit$$00000000) for __rt_exit
    defsig_fpe_outer.o(.text) refers to defsig_fpe_inner.o(.text) for __rt_SIGFPE_inner
    defsig_fpe_outer.o(.text) refers to defsig_exit.o(.text) for __sig_exit
    defsig_fpe_formal.o(.text) refers to rt_raise.o(.text) for __rt_raise
    libinit.o(.ARM.Collect$$libinit$$00000000) refers (Special) to libinit2.o(.ARM.Collect$$libinit$$0000002E) for __rt_lib_init_alloca_1
    libinit.o(.ARM.Collect$$libinit$$00000000) refers (Special) to libinit2.o(.ARM.Collect$$libinit$$0000002C) for __rt_lib_init_argv_1
    libinit.o(.ARM.Collect$$libinit$$00000000) refers (Special) to libinit2.o(.ARM.Collect$$libinit$$0000001B) for __rt_lib_init_atexit_1
    libinit.o(.ARM.Collect$$libinit$$00000000) refers (Special) to libinit2.o(.ARM.Collect$$libinit$$00000021) for __rt_lib_init_clock_1
    libinit.o(.ARM.Collect$$libinit$$00000000) refers (Special) to libinit2.o(.ARM.Collect$$libinit$$00000032) for __rt_lib_init_cpp_1
    libinit.o(.ARM.Collect$$libinit$$00000000) refers (Special) to libinit2.o(.ARM.Collect$$libinit$$00000030) for __rt_lib_init_exceptions_1
    libinit.o(.ARM.Collect$$libinit$$00000000) refers (Special) to libinit2.o(.ARM.Collect$$libinit$$00000002) for __rt_lib_init_fp_1
    libinit.o(.ARM.Collect$$libinit$$00000000) refers (Special) to libinit2.o(.ARM.Collect$$libinit$$0000001F) for __rt_lib_init_fp_trap_1
    libinit.o(.ARM.Collect$$libinit$$00000000) refers (Special) to libinit2.o(.ARM.Collect$$libinit$$00000023) for __rt_lib_init_getenv_1
    libinit.o(.ARM.Collect$$libinit$$00000000) refers (Special) to libinit2.o(.ARM.Collect$$libinit$$0000000A) for __rt_lib_init_heap_1
    libinit.o(.ARM.Collect$$libinit$$00000000) refers (Special) to libinit2.o(.ARM.Collect$$libinit$$00000011) for __rt_lib_init_lc_collate_1
    libinit.o(.ARM.Collect$$libinit$$00000000) refers (Special) to libinit2.o(.ARM.Collect$$libinit$$00000013) for __rt_lib_init_lc_ctype_1
    libinit.o(.ARM.Collect$$libinit$$00000000) refers (Special) to libinit2.o(.ARM.Collect$$libinit$$00000015) for __rt_lib_init_lc_monetary_1
    libinit.o(.ARM.Collect$$libinit$$00000000) refers (Special) to libinit2.o(.ARM.Collect$$libinit$$00000017) for __rt_lib_init_lc_numeric_1
    libinit.o(.ARM.Collect$$libinit$$00000000) refers (Special) to libinit2.o(.ARM.Collect$$libinit$$00000019) for __rt_lib_init_lc_time_1
    libinit.o(.ARM.Collect$$libinit$$00000000) refers (Special) to libinit2.o(.ARM.Collect$$libinit$$00000004) for __rt_lib_init_preinit_1
    libinit.o(.ARM.Collect$$libinit$$00000000) refers (Special) to libinit2.o(.ARM.Collect$$libinit$$0000000E) for __rt_lib_init_rand_1
    libinit.o(.ARM.Collect$$libinit$$00000000) refers (Special) to libinit2.o(.ARM.Collect$$libinit$$00000033) for __rt_lib_init_return
    libinit.o(.ARM.Collect$$libinit$$00000000) refers (Special) to libinit2.o(.ARM.Collect$$libinit$$0000001D) for __rt_lib_init_signal_1
    libinit.o(.ARM.Collect$$libinit$$00000000) refers (Special) to libinit2.o(.ARM.Collect$$libinit$$00000025) for __rt_lib_init_stdio_1
    libinit.o(.ARM.Collect$$libinit$$00000000) refers (Special) to libinit2.o(.ARM.Collect$$libinit$$0000000C) for __rt_lib_init_user_alloc_1
    libinit2.o(.ARM.Collect$$libinit$$0000000F) refers (Weak) to rt_locale_intlibspace.o(.text) for __rt_locale
    libinit2.o(.ARM.Collect$$libinit$$00000010) refers to libinit2.o(.ARM.Collect$$libinit$$0000000F) for .ARM.Collect$$libinit$$0000000F
    libinit2.o(.ARM.Collect$$libinit$$00000012) refers to libinit2.o(.ARM.Collect$$libinit$$0000000F) for .ARM.Collect$$libinit$$0000000F
    libinit2.o(.ARM.Collect$$libinit$$00000012) refers (Weak) to lc_ctype_c.o(locale$$code) for _get_lc_ctype
    libinit2.o(.ARM.Collect$$libinit$$00000014) refers to libinit2.o(.ARM.Collect$$libinit$$0000000F) for .ARM.Collect$$libinit$$0000000F
    libinit2.o(.ARM.Collect$$libinit$$00000016) refers to libinit2.o(.ARM.Collect$$libinit$$0000000F) for .ARM.Collect$$libinit$$0000000F
    libinit2.o(.ARM.Collect$$libinit$$00000016) refers (Weak) to lc_numeric_c.o(locale$$code) for _get_lc_numeric
    libinit2.o(.ARM.Collect$$libinit$$00000018) refers to libinit2.o(.ARM.Collect$$libinit$$0000000F) for .ARM.Collect$$libinit$$0000000F
    libinit2.o(.ARM.Collect$$libinit$$00000026) refers to argv_veneer.o(.emb_text) for __ARM_argv_veneer
    libinit2.o(.ARM.Collect$$libinit$$00000027) refers to argv_veneer.o(.emb_text) for __ARM_argv_veneer
    rtexit.o(.ARM.Collect$$rtexit$$00000000) refers (Special) to rtexit2.o(.ARM.Collect$$rtexit$$00000004) for __rt_exit_exit
    rtexit.o(.ARM.Collect$$rtexit$$00000000) refers (Special) to rtexit2.o(.ARM.Collect$$rtexit$$00000003) for __rt_exit_ls
    rtexit.o(.ARM.Collect$$rtexit$$00000000) refers (Special) to rtexit2.o(.ARM.Collect$$rtexit$$00000002) for __rt_exit_prels_1
    rtexit.o(.ARM.exidx) refers (Special) to rtexit2.o(.ARM.Collect$$rtexit$$00000004) for __rt_exit_exit
    rtexit.o(.ARM.exidx) refers (Special) to rtexit2.o(.ARM.Collect$$rtexit$$00000003) for __rt_exit_ls
    rtexit.o(.ARM.exidx) refers (Special) to rtexit2.o(.ARM.Collect$$rtexit$$00000002) for __rt_exit_prels_1
    rtexit.o(.ARM.exidx) refers to rtexit.o(.ARM.Collect$$rtexit$$00000000) for .ARM.Collect$$rtexit$$00000000
    rt_raise.o(.text) refers to __raise.o(.text) for __raise
    rt_raise.o(.text) refers to sys_exit.o(.text) for _sys_exit
    defsig_exit.o(.text) refers to sys_exit.o(.text) for _sys_exit
    defsig_fpe_inner.o(.text) refers to defsig_general.o(.text) for __default_signal_display
    argv_veneer.o(.emb_text) refers to no_argv.o(.text) for __ARM_get_argv
    sys_exit.o(.text) refers (Special) to use_no_semi.o(.text) for __I$use$semihosting
    sys_exit.o(.text) refers (Special) to indicate_semi.o(.text) for __semihosting_library_function
    rtexit2.o(.ARM.Collect$$rtexit$$00000003) refers to libshutdown.o(.ARM.Collect$$libshutdown$$00000000) for __rt_lib_shutdown
    rtexit2.o(.ARM.Collect$$rtexit$$00000004) refers to sys_exit.o(.text) for _sys_exit
    rtexit2.o(.ARM.exidx) refers to rtexit2.o(.ARM.Collect$$rtexit$$00000001) for .ARM.Collect$$rtexit$$00000001
    rtexit2.o(.ARM.exidx) refers to rtexit2.o(.ARM.Collect$$rtexit$$00000003) for .ARM.Collect$$rtexit$$00000003
    rtexit2.o(.ARM.exidx) refers to rtexit2.o(.ARM.Collect$$rtexit$$00000004) for .ARM.Collect$$rtexit$$00000004
    __raise.o(.text) refers to defsig.o(CL$$defsig) for __default_signal_handler
    defsig_general.o(.text) refers to sys_wrch.o(.text) for _ttywrch
    _get_argv_nomalloc.o(.text) refers (Special) to hrguard.o(.text) for __heap_region$guard
    _get_argv_nomalloc.o(.text) refers to defsig_rtmem_outer.o(.text) for __rt_SIGRTMEM
    _get_argv_nomalloc.o(.text) refers to sys_command.o(.text) for _sys_command_string
    sys_wrch.o(.text) refers (Special) to use_no_semi.o(.text) for __I$use$semihosting
    sys_wrch.o(.text) refers (Special) to indicate_semi.o(.text) for __semihosting_library_function
    sys_command.o(.text) refers (Special) to use_no_semi.o(.text) for __I$use$semihosting
    sys_command.o(.text) refers (Special) to indicate_semi.o(.text) for __semihosting_library_function
    defsig_rtmem_outer.o(.text) refers to defsig_rtmem_inner.o(.text) for __rt_SIGRTMEM_inner
    defsig_rtmem_outer.o(.text) refers to defsig_exit.o(.text) for __sig_exit
    defsig_rtmem_formal.o(.text) refers to rt_raise.o(.text) for __rt_raise
    defsig.o(CL$$defsig) refers to defsig_fpe_inner.o(.text) for __rt_SIGFPE_inner
    defsig.o(CL$$defsig) refers to defsig_rtmem_inner.o(.text) for __rt_SIGRTMEM_inner
    libshutdown.o(.ARM.Collect$$libshutdown$$00000000) refers (Special) to libshutdown2.o(.ARM.Collect$$libshutdown$$00000002) for __rt_lib_shutdown_cpp_1
    libshutdown.o(.ARM.Collect$$libshutdown$$00000000) refers (Special) to libshutdown2.o(.ARM.Collect$$libshutdown$$00000007) for __rt_lib_shutdown_fp_trap_1
    libshutdown.o(.ARM.Collect$$libshutdown$$00000000) refers (Special) to libshutdown2.o(.ARM.Collect$$libshutdown$$0000000F) for __rt_lib_shutdown_heap_1
    libshutdown.o(.ARM.Collect$$libshutdown$$00000000) refers (Special) to libshutdown2.o(.ARM.Collect$$libshutdown$$00000010) for __rt_lib_shutdown_return
    libshutdown.o(.ARM.Collect$$libshutdown$$00000000) refers (Special) to libshutdown2.o(.ARM.Collect$$libshutdown$$0000000A) for __rt_lib_shutdown_signal_1
    libshutdown.o(.ARM.Collect$$libshutdown$$00000000) refers (Special) to libshutdown2.o(.ARM.Collect$$libshutdown$$00000004) for __rt_lib_shutdown_stdio_1
    libshutdown.o(.ARM.Collect$$libshutdown$$00000000) refers (Special) to libshutdown2.o(.ARM.Collect$$libshutdown$$0000000C) for __rt_lib_shutdown_user_alloc_1
    defsig_abrt_inner.o(.text) refers to defsig_general.o(.text) for __default_signal_display
    defsig_rtred_inner.o(.text) refers to defsig_general.o(.text) for __default_signal_display
    defsig_rtmem_inner.o(.text) refers to defsig_general.o(.text) for __default_signal_display
    defsig_stak_inner.o(.text) refers to defsig_general.o(.text) for __default_signal_display
    defsig_pvfn_inner.o(.text) refers to defsig_general.o(.text) for __default_signal_display
    defsig_cppl_inner.o(.text) refers to defsig_general.o(.text) for __default_signal_display
    defsig_segv_inner.o(.text) refers to defsig_general.o(.text) for __default_signal_display
    defsig_other.o(.text) refers to defsig_general.o(.text) for __default_signal_display


==============================================================================

Removing Unused input sections from the image.

    Removing system_lpc17xx.o(.rev16_text), (4 bytes).
    Removing system_lpc17xx.o(.revsh_text), (4 bytes).
    Removing system_lpc17xx.o(i.SystemCoreClockUpdate), (424 bytes).
    Removing system_lpc17xx.o(.data), (4 bytes).
    Removing lpc17xx_it.o(.rev16_text), (4 bytes).
    Removing lpc17xx_it.o(.revsh_text), (4 bytes).
    Removing main.o(.rev16_text), (4 bytes).
    Removing main.o(.revsh_text), (4 bytes).
    Removing peripheral.o(.rev16_text), (4 bytes).
    Removing peripheral.o(.revsh_text), (4 bytes).
    Removing peripheral.o(i.ADC_Config), (120 bytes).
    Removing peripheral.o(i.Delay), (20 bytes).
    Removing peripheral.o(i.IWDT_Config), (20 bytes).
    Removing peripheral.o(i.SPI_Config), (2 bytes).
    Removing peripheral.o(i.TIM_Config), (132 bytes).
    Removing peripheral.o(i.UART_Config), (120 bytes).
    Removing peripheral.o(i.USB_Send_Bytes), (16 bytes).
    Removing peripheral.o(i.Uart_Tx), (60 bytes).
    Removing user.o(.rev16_text), (4 bytes).
    Removing user.o(.revsh_text), (4 bytes).
    Removing bool.o(.rev16_text), (4 bytes).
    Removing bool.o(.revsh_text), (4 bytes).
    Removing bool.o(i.Bool_Toggle), (16 bytes).
    Removing button.o(.rev16_text), (4 bytes).
    Removing button.o(.revsh_text), (4 bytes).
    Removing bytes.o(.rev16_text), (4 bytes).
    Removing bytes.o(.revsh_text), (4 bytes).
    Removing bytes.o(i.Bytes_Print_ToHex), (76 bytes).
    Removing bytes.o(i.Bytes_Swap_EachTwoBytes), (42 bytes).
    Removing bytes.o(i.Bytes_ToUint32), (24 bytes).
    Removing capture.o(.rev16_text), (4 bytes).
    Removing capture.o(.revsh_text), (4 bytes).
    Removing capture.o(i.Capture_Clock), (20 bytes).
    Removing capture.o(i.Capture_GetTotalTime), (18 bytes).
    Removing capture.o(i.Capture_Handlers), (56 bytes).
    Removing capture.o(i.Capture_Init), (30 bytes).
    Removing capture.o(i.Capture_ToString), (156 bytes).
    Removing fifo.o(.rev16_text), (4 bytes).
    Removing fifo.o(.revsh_text), (4 bytes).
    Removing parameters.o(.rev16_text), (4 bytes).
    Removing parameters.o(.revsh_text), (4 bytes).
    Removing parameters.o(i.Parameters_Add_Float), (76 bytes).
    Removing parameters.o(i.Parameters_Add_FloatToLine), (76 bytes).
    Removing parameters.o(i.Parameters_Add_Str), (52 bytes).
    Removing parameters.o(i.Parameters_Add_StrToLine), (52 bytes).
    Removing parameters.o(i.Parameters_Add_Uint), (56 bytes).
    Removing parameters.o(i.Parameters_Add_UintToLine), (60 bytes).
    Removing parameters.o(i.Parameters_Compare), (60 bytes).
    Removing parameters.o(i.Parameters_Get_StrWhitDefault), (56 bytes).
    Removing parameters.o(i.Parameters_Set), (148 bytes).
    Removing parameters.o(i.Parameters_Set_Line), (88 bytes).
    Removing parameters.o(i.Parameters_Set_Lines), (60 bytes).
    Removing parameters.o(i.Prm_AddInt), (60 bytes).
    Removing parameters.o(i.Prm_AddStr), (52 bytes).
    Removing pulse.o(.rev16_text), (4 bytes).
    Removing pulse.o(.revsh_text), (4 bytes).
    Removing pulse.o(i.Pulse_Fsm), (198 bytes).
    Removing pulse.o(i.Pulse_Get_Nivel), (44 bytes).
    Removing pulse.o(i.Pulse_Init), (48 bytes).
    Removing pulse.o(i.Pulse_Set_Setpoint), (4 bytes).
    Removing pulse.o(i.Pulse_Sync), (56 bytes).
    Removing pulse.o(.bss), (12 bytes).
    Removing pulse.o(.data), (1 bytes).
    Removing serial.o(.rev16_text), (4 bytes).
    Removing serial.o(.revsh_text), (4 bytes).
    Removing serial.o(i.Serial_Init), (20 bytes).
    Removing serial.o(i.Serial_Send), (2 bytes).
    Removing serial.o(i.Usb_InitVar), (54 bytes).
    Removing str.o(.rev16_text), (4 bytes).
    Removing str.o(.revsh_text), (4 bytes).
    Removing str.o(i.Str_NotEqual), (24 bytes).
    Removing str.o(i.String_Between), (120 bytes).
    Removing str.o(i.String_Compare), (24 bytes).
    Removing str.o(i.String_Has), (28 bytes).
    Removing str.o(i.String_Is_Empty), (20 bytes).
    Removing str.o(i.String_Read_Line), (108 bytes).
    Removing str.o(i.String_Read_TotalLinesNumber), (52 bytes).
    Removing str.o(i.String_Remplace), (80 bytes).
    Removing str.o(i.String_Remplace_Line), (108 bytes).
    Removing str.o(i.String_Trim_Total), (62 bytes).
    Removing sytemtime.o(.rev16_text), (4 bytes).
    Removing sytemtime.o(.revsh_text), (4 bytes).
    Removing sytemtime.o(i.SystemTime_Init), (12 bytes).
    Removing sytemtime.o(i.SystemTime_To_String), (84 bytes).
    Removing timer.o(.rev16_text), (4 bytes).
    Removing timer.o(.revsh_text), (4 bytes).
    Removing timer.o(i.Timer_GetRemainingTime), (34 bytes).
    Removing timer.o(i.Timer_GetRemainingTimeInSeconds), (42 bytes).
    Removing timer.o(i.Timer_SetInterval), (4 bytes).
    Removing uint32.o(.rev16_text), (4 bytes).
    Removing uint32.o(.revsh_text), (4 bytes).
    Removing uint32.o(i.Uint16_ToBytes), (10 bytes).
    Removing uint32.o(i.Uint32_Swap), (30 bytes).
    Removing uint32.o(i.Uint32_ToBytes), (16 bytes).
    Removing utils.o(.rev16_text), (4 bytes).
    Removing utils.o(.revsh_text), (4 bytes).
    Removing utils.o(i.Ascii_To_Digit), (24 bytes).
    Removing utils.o(i.Uint16_Checksum), (26 bytes).
    Removing handlers.o(.rev16_text), (4 bytes).
    Removing handlers.o(.revsh_text), (4 bytes).
    Removing dev.o(.rev16_text), (4 bytes).
    Removing dev.o(.revsh_text), (4 bytes).
    Removing dev.o(i.ADC_Process_Init), (24 bytes).
    Removing dev.o(i.ADC_Read_Event), (80 bytes).
    Removing lpc17xx_adc.o(.rev16_text), (4 bytes).
    Removing lpc17xx_adc.o(.revsh_text), (4 bytes).
    Removing lpc17xx_adc.o(i.ADC_BurstCmd), (84 bytes).
    Removing lpc17xx_adc.o(i.ADC_ChannelCmd), (116 bytes).
    Removing lpc17xx_adc.o(i.ADC_ChannelGetData), (84 bytes).
    Removing lpc17xx_adc.o(i.ADC_ChannelGetStatus), (124 bytes).
    Removing lpc17xx_adc.o(i.ADC_DeInit), (104 bytes).
    Removing lpc17xx_adc.o(i.ADC_EdgeStartConfig), (100 bytes).
    Removing lpc17xx_adc.o(i.ADC_GetData), (24 bytes).
    Removing lpc17xx_adc.o(i.ADC_GlobalGetData), (68 bytes).
    Removing lpc17xx_adc.o(i.ADC_GlobalGetStatus), (108 bytes).
    Removing lpc17xx_adc.o(i.ADC_Init), (132 bytes).
    Removing lpc17xx_adc.o(i.ADC_IntConfig), (132 bytes).
    Removing lpc17xx_adc.o(i.ADC_PowerdownCmd), (84 bytes).
    Removing lpc17xx_adc.o(i.ADC_StartCmd), (120 bytes).
    Removing lpc17xx_adc.o(i.check_failed), (4 bytes).
    Removing lpc17xx_can.o(.rev16_text), (4 bytes).
    Removing lpc17xx_can.o(.revsh_text), (4 bytes).
    Removing lpc17xx_can.o(i.CAN_DeInit), (100 bytes).
    Removing lpc17xx_can.o(i.CAN_FullCANIntGetStatus), (76 bytes).
    Removing lpc17xx_can.o(i.CAN_FullCANPendGetStatus), (92 bytes).
    Removing lpc17xx_can.o(i.CAN_GetCRStatus), (108 bytes).
    Removing lpc17xx_can.o(i.CAN_GetCTRLStatus), (128 bytes).
    Removing lpc17xx_can.o(i.CAN_IRQCmd), (220 bytes).
    Removing lpc17xx_can.o(i.CAN_Init), (204 bytes).
    Removing lpc17xx_can.o(i.CAN_IntGetStatus), (76 bytes).
    Removing lpc17xx_can.o(i.CAN_LoadExplicitEntry), (912 bytes).
    Removing lpc17xx_can.o(i.CAN_LoadFullCANEntry), (852 bytes).
    Removing lpc17xx_can.o(i.CAN_LoadGroupEntry), (872 bytes).
    Removing lpc17xx_can.o(i.CAN_ModeConfig), (364 bytes).
    Removing lpc17xx_can.o(i.CAN_ReceiveMsg), (168 bytes).
    Removing lpc17xx_can.o(i.CAN_RemoveEntry), (1280 bytes).
    Removing lpc17xx_can.o(i.CAN_SendMsg), (576 bytes).
    Removing lpc17xx_can.o(i.CAN_SetAFMode), (136 bytes).
    Removing lpc17xx_can.o(i.CAN_SetCommand), (84 bytes).
    Removing lpc17xx_can.o(i.CAN_SetupAFLUT), (1760 bytes).
    Removing lpc17xx_can.o(i.FCAN_ReadObj), (264 bytes).
    Removing lpc17xx_can.o(i.can_SetBaudrate), (224 bytes).
    Removing lpc17xx_can.o(i.check_failed), (4 bytes).
    Removing lpc17xx_can.o(.data), (12 bytes).
    Removing lpc17xx_clkpwr.o(.rev16_text), (4 bytes).
    Removing lpc17xx_clkpwr.o(.revsh_text), (4 bytes).
    Removing lpc17xx_clkpwr.o(i.CLKPWR_DeepPowerDown), (24 bytes).
    Removing lpc17xx_clkpwr.o(i.CLKPWR_DeepSleep), (24 bytes).
    Removing lpc17xx_clkpwr.o(i.CLKPWR_GetPCLK), (64 bytes).
    Removing lpc17xx_clkpwr.o(i.CLKPWR_GetPCLKSEL), (40 bytes).
    Removing lpc17xx_clkpwr.o(i.CLKPWR_PowerDown), (24 bytes).
    Removing lpc17xx_clkpwr.o(i.CLKPWR_Sleep), (16 bytes).
    Removing lpc17xx_dac.o(.rev16_text), (4 bytes).
    Removing lpc17xx_dac.o(.revsh_text), (4 bytes).
    Removing lpc17xx_dac.o(i.DAC_ConfigDAConverterControl), (68 bytes).
    Removing lpc17xx_dac.o(i.DAC_Init), (16 bytes).
    Removing lpc17xx_dac.o(i.DAC_SetBias), (38 bytes).
    Removing lpc17xx_dac.o(i.DAC_SetDMATimeOut), (24 bytes).
    Removing lpc17xx_dac.o(i.DAC_UpdateValue), (18 bytes).
    Removing lpc17xx_emac.o(.rev16_text), (4 bytes).
    Removing lpc17xx_emac.o(.revsh_text), (4 bytes).
    Removing lpc17xx_emac.o(i.EMAC_CheckPHYStatus), (66 bytes).
    Removing lpc17xx_emac.o(i.EMAC_CheckReceiveDataStatus), (32 bytes).
    Removing lpc17xx_emac.o(i.EMAC_CheckReceiveIndex), (28 bytes).
    Removing lpc17xx_emac.o(i.EMAC_CheckTransmitIndex), (48 bytes).
    Removing lpc17xx_emac.o(i.EMAC_DeInit), (32 bytes).
    Removing lpc17xx_emac.o(i.EMAC_GetReceiveDataSize), (24 bytes).
    Removing lpc17xx_emac.o(i.EMAC_GetWoLStatus), (28 bytes).
    Removing lpc17xx_emac.o(i.EMAC_Init), (304 bytes).
    Removing lpc17xx_emac.o(i.EMAC_IntCmd), (32 bytes).
    Removing lpc17xx_emac.o(i.EMAC_IntGetStatus), (28 bytes).
    Removing lpc17xx_emac.o(i.EMAC_ReadPacketBuffer), (48 bytes).
    Removing lpc17xx_emac.o(i.EMAC_SetFilterMode), (40 bytes).
    Removing lpc17xx_emac.o(i.EMAC_SetHashFilter), (104 bytes).
    Removing lpc17xx_emac.o(i.EMAC_SetPHYMode), (160 bytes).
    Removing lpc17xx_emac.o(i.EMAC_UpdatePHYStatus), (124 bytes).
    Removing lpc17xx_emac.o(i.EMAC_UpdateRxConsumeIndex), (24 bytes).
    Removing lpc17xx_emac.o(i.EMAC_UpdateTxProduceIndex), (24 bytes).
    Removing lpc17xx_emac.o(i.EMAC_WritePacketBuffer), (60 bytes).
    Removing lpc17xx_emac.o(i.emac_CRCCalc), (176 bytes).
    Removing lpc17xx_emac.o(i.read_PHY), (62 bytes).
    Removing lpc17xx_emac.o(i.rx_descr_init), (104 bytes).
    Removing lpc17xx_emac.o(i.setEmacAddr), (44 bytes).
    Removing lpc17xx_emac.o(i.tx_descr_init), (92 bytes).
    Removing lpc17xx_emac.o(i.write_PHY), (54 bytes).
    Removing lpc17xx_emac.o(.bss), (10852 bytes).
    Removing lpc17xx_emac.o(.constdata), (15 bytes).
    Removing lpc17xx_exti.o(.rev16_text), (4 bytes).
    Removing lpc17xx_exti.o(.revsh_text), (4 bytes).
    Removing lpc17xx_exti.o(i.EXTI_Init), (148 bytes).
    Removing lpc17xx_gpdma.o(.rev16_text), (4 bytes).
    Removing lpc17xx_gpdma.o(.revsh_text), (4 bytes).
    Removing lpc17xx_gpdma.o(i.GPDMA_ChannelCmd), (36 bytes).
    Removing lpc17xx_gpdma.o(i.GPDMA_ClearIntPending), (108 bytes).
    Removing lpc17xx_gpdma.o(i.GPDMA_Init), (76 bytes).
    Removing lpc17xx_gpdma.o(i.GPDMA_IntGetStatus), (244 bytes).
    Removing lpc17xx_gpdma.o(i.GPDMA_Setup), (596 bytes).
    Removing lpc17xx_gpdma.o(i.check_failed), (4 bytes).
    Removing lpc17xx_gpdma.o(.constdata), (48 bytes).
    Removing lpc17xx_gpdma.o(.data), (128 bytes).
    Removing lpc17xx_i2c.o(.rev16_text), (4 bytes).
    Removing lpc17xx_i2c.o(.revsh_text), (4 bytes).
    Removing lpc17xx_i2c.o(i.I2C_Cmd), (132 bytes).
    Removing lpc17xx_i2c.o(i.I2C_DeInit), (140 bytes).
    Removing lpc17xx_i2c.o(i.I2C_GetByte), (32 bytes).
    Removing lpc17xx_i2c.o(i.I2C_Init), (176 bytes).
    Removing lpc17xx_i2c.o(i.I2C_IntCmd), (104 bytes).
    Removing lpc17xx_i2c.o(i.I2C_MasterHandler), (152 bytes).
    Removing lpc17xx_i2c.o(i.I2C_MasterHanleStates), (382 bytes).
    Removing lpc17xx_i2c.o(i.I2C_MasterTransferComplete), (36 bytes).
    Removing lpc17xx_i2c.o(i.I2C_MasterTransferData), (220 bytes).
    Removing lpc17xx_i2c.o(i.I2C_MonitorGetDatabuffer), (88 bytes).
    Removing lpc17xx_i2c.o(i.I2C_MonitorHandler), (44 bytes).
    Removing lpc17xx_i2c.o(i.I2C_MonitorModeCmd), (148 bytes).
    Removing lpc17xx_i2c.o(i.I2C_MonitorModeConfig), (136 bytes).
    Removing lpc17xx_i2c.o(i.I2C_SendByte), (62 bytes).
    Removing lpc17xx_i2c.o(i.I2C_SetClock), (148 bytes).
    Removing lpc17xx_i2c.o(i.I2C_SetOwnSlaveAddr), (212 bytes).
    Removing lpc17xx_i2c.o(i.I2C_SlaveHandler), (156 bytes).
    Removing lpc17xx_i2c.o(i.I2C_SlaveHanleStates), (300 bytes).
    Removing lpc17xx_i2c.o(i.I2C_SlaveTransferComplete), (36 bytes).
    Removing lpc17xx_i2c.o(i.I2C_SlaveTransferData), (212 bytes).
    Removing lpc17xx_i2c.o(i.I2C_Start), (34 bytes).
    Removing lpc17xx_i2c.o(i.I2C_Stop), (22 bytes).
    Removing lpc17xx_i2c.o(i.I2C_getNum), (52 bytes).
    Removing lpc17xx_i2c.o(i.NVIC_DisableIRQ), (24 bytes).
    Removing lpc17xx_i2c.o(i.NVIC_EnableIRQ), (22 bytes).
    Removing lpc17xx_i2c.o(i.check_failed), (4 bytes).
    Removing lpc17xx_i2c.o(.bss), (48 bytes).
    Removing lpc17xx_i2c.o(.data), (4 bytes).
    Removing lpc17xx_i2s.o(.rev16_text), (4 bytes).
    Removing lpc17xx_i2s.o(.revsh_text), (4 bytes).
    Removing lpc17xx_i2s.o(i.I2S_Config), (256 bytes).
    Removing lpc17xx_i2s.o(i.I2S_DMACmd), (232 bytes).
    Removing lpc17xx_i2s.o(i.I2S_DMAConfig), (176 bytes).
    Removing lpc17xx_i2s.o(i.I2S_DeInit), (72 bytes).
    Removing lpc17xx_i2s.o(i.I2S_FreqConfig), (528 bytes).
    Removing lpc17xx_i2s.o(i.I2S_GetIRQDepth), (84 bytes).
    Removing lpc17xx_i2s.o(i.I2S_GetIRQStatus), (84 bytes).
    Removing lpc17xx_i2s.o(i.I2S_GetLevel), (96 bytes).
    Removing lpc17xx_i2s.o(i.I2S_IRQCmd), (136 bytes).
    Removing lpc17xx_i2s.o(i.I2S_IRQConfig), (124 bytes).
    Removing lpc17xx_i2s.o(i.I2S_Init), (80 bytes).
    Removing lpc17xx_i2s.o(i.I2S_ModeConfig), (256 bytes).
    Removing lpc17xx_i2s.o(i.I2S_Mute), (104 bytes).
    Removing lpc17xx_i2s.o(i.I2S_Pause), (100 bytes).
    Removing lpc17xx_i2s.o(i.I2S_Receive), (64 bytes).
    Removing lpc17xx_i2s.o(i.I2S_Send), (68 bytes).
    Removing lpc17xx_i2s.o(i.I2S_SetBitRate), (112 bytes).
    Removing lpc17xx_i2s.o(i.I2S_Start), (42 bytes).
    Removing lpc17xx_i2s.o(i.I2S_Stop), (128 bytes).
    Removing lpc17xx_i2s.o(i.check_failed), (4 bytes).
    Removing lpc17xx_i2s.o(i.i2s_GetChannel), (108 bytes).
    Removing lpc17xx_i2s.o(i.i2s_GetWordWidth), (116 bytes).
    Removing lpc17xx_iap.o(i.BlankCheckSector), (60 bytes).
    Removing lpc17xx_iap.o(i.Compare), (44 bytes).
    Removing lpc17xx_iap.o(i.CopyRAM2Flash), (88 bytes).
    Removing lpc17xx_iap.o(i.EraseSector), (72 bytes).
    Removing lpc17xx_iap.o(i.GetSecNum), (16 bytes).
    Removing lpc17xx_iap.o(i.InvokeISP), (28 bytes).
    Removing lpc17xx_iap.o(i.PrepareSector), (40 bytes).
    Removing lpc17xx_iap.o(i.ReadBootCodeVer), (52 bytes).
    Removing lpc17xx_iap.o(i.ReadDeviceSerialNum), (64 bytes).
    Removing lpc17xx_iap.o(i.ReadPartID), (44 bytes).
    Removing lpc17xx_iap.o(.data), (4 bytes).
    Removing lpc17xx_mcpwm.o(.rev16_text), (4 bytes).
    Removing lpc17xx_mcpwm.o(.revsh_text), (4 bytes).
    Removing lpc17xx_mcpwm.o(i.MCPWM_ACMode), (18 bytes).
    Removing lpc17xx_mcpwm.o(i.MCPWM_ClearCapture), (16 bytes).
    Removing lpc17xx_mcpwm.o(i.MCPWM_ConfigCapture), (256 bytes).
    Removing lpc17xx_mcpwm.o(i.MCPWM_ConfigChannel), (300 bytes).
    Removing lpc17xx_mcpwm.o(i.MCPWM_CountConfig), (214 bytes).
    Removing lpc17xx_mcpwm.o(i.MCPWM_DCMode), (38 bytes).
    Removing lpc17xx_mcpwm.o(i.MCPWM_GetCapture), (28 bytes).
    Removing lpc17xx_mcpwm.o(i.MCPWM_GetIntStatus), (16 bytes).
    Removing lpc17xx_mcpwm.o(i.MCPWM_Init), (26 bytes).
    Removing lpc17xx_mcpwm.o(i.MCPWM_IntClear), (4 bytes).
    Removing lpc17xx_mcpwm.o(i.MCPWM_IntConfig), (10 bytes).
    Removing lpc17xx_mcpwm.o(i.MCPWM_IntSet), (4 bytes).
    Removing lpc17xx_mcpwm.o(i.MCPWM_Start), (42 bytes).
    Removing lpc17xx_mcpwm.o(i.MCPWM_Stop), (42 bytes).
    Removing lpc17xx_mcpwm.o(i.MCPWM_WriteToShadow), (40 bytes).
    Removing lpc17xx_nvic.o(.rev16_text), (4 bytes).
    Removing lpc17xx_nvic.o(.revsh_text), (4 bytes).
    Removing lpc17xx_nvic.o(i.NVIC_DeInit), (68 bytes).
    Removing lpc17xx_nvic.o(i.NVIC_SCBDeInit), (84 bytes).
    Removing lpc17xx_nvic.o(i.NVIC_SetVTOR), (12 bytes).
    Removing lpc17xx_pwm.o(.rev16_text), (4 bytes).
    Removing lpc17xx_pwm.o(.revsh_text), (4 bytes).
    Removing lpc17xx_pwm.o(i.PWM_ConfigCapture), (324 bytes).
    Removing lpc17xx_pwm.o(i.PWM_ConfigStructInit), (92 bytes).
    Removing lpc17xx_pwm.o(i.PWM_DeInit), (76 bytes).
    Removing lpc17xx_pwm.o(i.PWM_GetCaptureValue), (104 bytes).
    Removing lpc17xx_pwm.o(i.PWM_MultiMatchUpdate), (184 bytes).
    Removing lpc17xx_qei.o(.rev16_text), (4 bytes).
    Removing lpc17xx_qei.o(.revsh_text), (4 bytes).
    Removing lpc17xx_qei.o(i.QEI_CalculateRPM), (148 bytes).
    Removing lpc17xx_qei.o(i.QEI_ConfigStructInit), (36 bytes).
    Removing lpc17xx_qei.o(i.QEI_DeInit), (16 bytes).
    Removing lpc17xx_qei.o(i.QEI_GetIndex), (6 bytes).
    Removing lpc17xx_qei.o(i.QEI_GetIntStatus), (18 bytes).
    Removing lpc17xx_qei.o(i.QEI_GetPosition), (6 bytes).
    Removing lpc17xx_qei.o(i.QEI_GetStatus), (16 bytes).
    Removing lpc17xx_qei.o(i.QEI_GetTimer), (6 bytes).
    Removing lpc17xx_qei.o(i.QEI_GetVelocity), (6 bytes).
    Removing lpc17xx_qei.o(i.QEI_GetVelocityCap), (6 bytes).
    Removing lpc17xx_qei.o(i.QEI_Init), (62 bytes).
    Removing lpc17xx_qei.o(i.QEI_IntClear), (6 bytes).
    Removing lpc17xx_qei.o(i.QEI_IntCmd), (16 bytes).
    Removing lpc17xx_qei.o(i.QEI_IntSet), (6 bytes).
    Removing lpc17xx_qei.o(i.QEI_Reset), (52 bytes).
    Removing lpc17xx_qei.o(i.QEI_SetDigiFilter), (4 bytes).
    Removing lpc17xx_qei.o(i.QEI_SetIndexComp), (4 bytes).
    Removing lpc17xx_qei.o(i.QEI_SetMaxPosition), (4 bytes).
    Removing lpc17xx_qei.o(i.QEI_SetPositionComp), (14 bytes).
    Removing lpc17xx_qei.o(i.QEI_SetTimerReload), (68 bytes).
    Removing lpc17xx_qei.o(i.QEI_SetVelocityComp), (4 bytes).
    Removing lpc17xx_rit.o(.rev16_text), (4 bytes).
    Removing lpc17xx_rit.o(.revsh_text), (4 bytes).
    Removing lpc17xx_rit.o(i.RIT_Cmd), (24 bytes).
    Removing lpc17xx_rit.o(i.RIT_GetIntStatus), (30 bytes).
    Removing lpc17xx_rit.o(i.RIT_Init), (36 bytes).
    Removing lpc17xx_rit.o(i.RIT_TimerDebugCmd), (24 bytes).
    Removing lpc17xx_rtc.o(.rev16_text), (4 bytes).
    Removing lpc17xx_rtc.o(.revsh_text), (4 bytes).
    Removing lpc17xx_rtc.o(i.RTC_AlarmIntConfig), (324 bytes).
    Removing lpc17xx_rtc.o(i.RTC_CalibConfig), (124 bytes).
    Removing lpc17xx_rtc.o(i.RTC_CalibCounterCmd), (108 bytes).
    Removing lpc17xx_rtc.o(i.RTC_ClearIntPending), (92 bytes).
    Removing lpc17xx_rtc.o(i.RTC_Cmd), (104 bytes).
    Removing lpc17xx_rtc.o(i.RTC_CntIncrIntConfig), (324 bytes).
    Removing lpc17xx_rtc.o(i.RTC_DeInit), (76 bytes).
    Removing lpc17xx_rtc.o(i.RTC_GetAlarmTime), (102 bytes).
    Removing lpc17xx_rtc.o(i.RTC_GetFullAlarmTime), (136 bytes).
    Removing lpc17xx_rtc.o(i.RTC_GetFullTime), (136 bytes).
    Removing lpc17xx_rtc.o(i.RTC_GetIntPending), (100 bytes).
    Removing lpc17xx_rtc.o(i.RTC_GetTime), (204 bytes).
    Removing lpc17xx_rtc.o(i.RTC_Init), (88 bytes).
    Removing lpc17xx_rtc.o(i.RTC_ReadGPREG), (100 bytes).
    Removing lpc17xx_rtc.o(i.RTC_ResetClockTickCounter), (80 bytes).
    Removing lpc17xx_rtc.o(i.RTC_SetAlarmTime), (304 bytes).
    Removing lpc17xx_rtc.o(i.RTC_SetFullAlarmTime), (136 bytes).
    Removing lpc17xx_rtc.o(i.RTC_SetFullTime), (136 bytes).
    Removing lpc17xx_rtc.o(i.RTC_SetTime), (344 bytes).
    Removing lpc17xx_rtc.o(i.RTC_WriteGPREG), (100 bytes).
    Removing lpc17xx_rtc.o(i.check_failed), (4 bytes).
    Removing lpc17xx_spi.o(.rev16_text), (4 bytes).
    Removing lpc17xx_spi.o(.revsh_text), (4 bytes).
    Removing lpc17xx_spi.o(i.SPI_CheckStatus), (88 bytes).
    Removing lpc17xx_spi.o(i.SPI_ClearIntPending), (6 bytes).
    Removing lpc17xx_spi.o(i.SPI_ConfigStructInit), (32 bytes).
    Removing lpc17xx_spi.o(i.SPI_DeInit), (24 bytes).
    Removing lpc17xx_spi.o(i.SPI_GetDataSize), (10 bytes).
    Removing lpc17xx_spi.o(i.SPI_GetIntStatus), (10 bytes).
    Removing lpc17xx_spi.o(i.SPI_GetStatus), (10 bytes).
    Removing lpc17xx_spi.o(i.SPI_Init), (136 bytes).
    Removing lpc17xx_spi.o(i.SPI_IntCmd), (108 bytes).
    Removing lpc17xx_spi.o(i.SPI_ReadWrite), (322 bytes).
    Removing lpc17xx_spi.o(i.SPI_ReceiveData), (68 bytes).
    Removing lpc17xx_spi.o(i.SPI_SendData), (68 bytes).
    Removing lpc17xx_spi.o(i.SPI_SetClock), (120 bytes).
    Removing lpc17xx_spi.o(i.check_failed), (4 bytes).
    Removing lpc17xx_ssp.o(.rev16_text), (4 bytes).
    Removing lpc17xx_ssp.o(.revsh_text), (4 bytes).
    Removing lpc17xx_ssp.o(i.SSP_ClearIntPending), (100 bytes).
    Removing lpc17xx_ssp.o(i.SSP_Cmd), (112 bytes).
    Removing lpc17xx_ssp.o(i.SSP_ConfigStructInit), (28 bytes).
    Removing lpc17xx_ssp.o(i.SSP_DMACmd), (140 bytes).
    Removing lpc17xx_ssp.o(i.SSP_DeInit), (104 bytes).
    Removing lpc17xx_ssp.o(i.SSP_GetDataSize), (80 bytes).
    Removing lpc17xx_ssp.o(i.SSP_GetIntStatus), (116 bytes).
    Removing lpc17xx_ssp.o(i.SSP_GetRawIntStatus), (116 bytes).
    Removing lpc17xx_ssp.o(i.SSP_GetRawIntStatusReg), (76 bytes).
    Removing lpc17xx_ssp.o(i.SSP_GetStatus), (120 bytes).
    Removing lpc17xx_ssp.o(i.SSP_Init), (144 bytes).
    Removing lpc17xx_ssp.o(i.SSP_IntConfig), (100 bytes).
    Removing lpc17xx_ssp.o(i.SSP_LoopBackCmd), (112 bytes).
    Removing lpc17xx_ssp.o(i.SSP_ReadWrite), (550 bytes).
    Removing lpc17xx_ssp.o(i.SSP_ReceiveData), (80 bytes).
    Removing lpc17xx_ssp.o(i.SSP_SendData), (80 bytes).
    Removing lpc17xx_ssp.o(i.SSP_SlaveOutputCmd), (116 bytes).
    Removing lpc17xx_ssp.o(i.check_failed), (4 bytes).
    Removing lpc17xx_ssp.o(i.setSSPclock), (176 bytes).
    Removing lpc17xx_timer.o(.rev16_text), (4 bytes).
    Removing lpc17xx_timer.o(.revsh_text), (4 bytes).
    Removing lpc17xx_timer.o(i.TIM_ClearIntCapturePending), (8 bytes).
    Removing lpc17xx_timer.o(i.TIM_Cmd), (24 bytes).
    Removing lpc17xx_timer.o(i.TIM_ConfigCapture), (90 bytes).
    Removing lpc17xx_timer.o(i.TIM_ConfigMatch), (172 bytes).
    Removing lpc17xx_timer.o(i.TIM_GetCaptureValue), (12 bytes).
    Removing lpc17xx_timer.o(i.TIM_GetIntCaptureStatus), (16 bytes).
    Removing lpc17xx_timer.o(i.TIM_Init), (88 bytes).
    Removing lpc17xx_timer.o(i.TIM_ResetCounter), (18 bytes).
    Removing lpc17xx_timer.o(i.TIM_UpdateMatchValue), (40 bytes).
    Removing lpc17xx_uart.o(.rev16_text), (4 bytes).
    Removing lpc17xx_uart.o(.revsh_text), (4 bytes).
    Removing lpc17xx_uart.o(i.UART_ABClearIntPending), (116 bytes).
    Removing lpc17xx_uart.o(i.UART_ABCmd), (240 bytes).
    Removing lpc17xx_uart.o(i.UART_CheckBusy), (18 bytes).
    Removing lpc17xx_uart.o(i.UART_ConfigStructInit), (18 bytes).
    Removing lpc17xx_uart.o(i.UART_DeInit), (104 bytes).
    Removing lpc17xx_uart.o(i.UART_FIFOConfig), (296 bytes).
    Removing lpc17xx_uart.o(i.UART_FIFOConfigStructInit), (14 bytes).
    Removing lpc17xx_uart.o(i.UART_ForceBreak), (120 bytes).
    Removing lpc17xx_uart.o(i.UART_FullModemConfigMode), (164 bytes).
    Removing lpc17xx_uart.o(i.UART_FullModemForcePinState), (152 bytes).
    Removing lpc17xx_uart.o(i.UART_FullModemGetStatus), (68 bytes).
    Removing lpc17xx_uart.o(i.UART_Init), (488 bytes).
    Removing lpc17xx_uart.o(i.UART_IntConfig), (304 bytes).
    Removing lpc17xx_uart.o(i.UART_IrDACmd), (116 bytes).
    Removing lpc17xx_uart.o(i.UART_IrDAInvtInputCmd), (116 bytes).
    Removing lpc17xx_uart.o(i.UART_IrDAPulseDivConfig), (140 bytes).
    Removing lpc17xx_uart.o(i.UART_RS485Config), (324 bytes).
    Removing lpc17xx_uart.o(i.UART_RS485ReceiverCmd), (32 bytes).
    Removing lpc17xx_uart.o(i.UART_RS485Send), (88 bytes).
    Removing lpc17xx_uart.o(i.UART_RS485SendData), (22 bytes).
    Removing lpc17xx_uart.o(i.UART_RS485SendSlvAddr), (18 bytes).
    Removing lpc17xx_uart.o(i.UART_Receive), (124 bytes).
    Removing lpc17xx_uart.o(i.UART_ReceiveByte), (108 bytes).
    Removing lpc17xx_uart.o(i.UART_Send), (152 bytes).
    Removing lpc17xx_uart.o(i.UART_SendByte), (108 bytes).
    Removing lpc17xx_uart.o(i.UART_TxCmd), (180 bytes).
    Removing lpc17xx_uart.o(i.uart_set_divisors), (480 bytes).
    Removing lpc17xx_wdt.o(.rev16_text), (4 bytes).
    Removing lpc17xx_wdt.o(.revsh_text), (4 bytes).
    Removing lpc17xx_wdt.o(i.WDT_ClrTimeOutFlag), (18 bytes).
    Removing lpc17xx_wdt.o(i.WDT_Feed), (16 bytes).
    Removing lpc17xx_wdt.o(i.WDT_GetCurrentCount), (8 bytes).
    Removing lpc17xx_wdt.o(i.WDT_Init), (76 bytes).
    Removing lpc17xx_wdt.o(i.WDT_ReadTimeOutFlag), (12 bytes).
    Removing lpc17xx_wdt.o(i.WDT_SetTimeOut), (316 bytes).
    Removing lpc17xx_wdt.o(i.WDT_UpdateTimeOut), (28 bytes).
    Removing lpc17xx_gpio.o(.rev16_text), (4 bytes).
    Removing lpc17xx_gpio.o(.revsh_text), (4 bytes).
    Removing lpc17xx_gpio.o(i.I2C_Pin_Init), (2 bytes).
    Removing cdcuser.o(.rev16_text), (4 bytes).
    Removing cdcuser.o(.revsh_text), (4 bytes).
    Removing cdcuser.o(i.CDC_Init), (2 bytes).
    Removing cdcuser.o(i.CDC_OutBufAvailChar), (28 bytes).
    Removing cdcuser.o(i.CDC_RdOutBuf), (60 bytes).
    Removing usbhw.o(.rev16_text), (4 bytes).
    Removing usbhw.o(.revsh_text), (4 bytes).
    Removing usbhw.o(i.USB_ClearEPBuf), (20 bytes).
    Removing usbhw.o(i.USB_GetFrame), (40 bytes).
    Removing usbhw.o(i.USB_WakeUp), (36 bytes).
    Removing usbuser.o(i.USB_EndPoint10), (2 bytes).
    Removing usbuser.o(i.USB_EndPoint11), (2 bytes).
    Removing usbuser.o(i.USB_EndPoint12), (2 bytes).
    Removing usbuser.o(i.USB_EndPoint13), (2 bytes).
    Removing usbuser.o(i.USB_EndPoint14), (2 bytes).
    Removing usbuser.o(i.USB_EndPoint15), (2 bytes).
    Removing usbuser.o(i.USB_EndPoint3), (2 bytes).
    Removing usbuser.o(i.USB_EndPoint4), (2 bytes).
    Removing usbuser.o(i.USB_EndPoint5), (2 bytes).
    Removing usbuser.o(i.USB_EndPoint6), (2 bytes).
    Removing usbuser.o(i.USB_EndPoint7), (2 bytes).
    Removing usbuser.o(i.USB_EndPoint8), (2 bytes).
    Removing usbuser.o(i.USB_EndPoint9), (2 bytes).
    Removing uart.o(.rev16_text), (4 bytes).
    Removing uart.o(.revsh_text), (4 bytes).
    Removing uart.o(i.NVIC_DisableIRQ), (24 bytes).
    Removing uart.o(i.NVIC_EnableIRQ), (22 bytes).
    Removing uart.o(i.ser_AvailChar), (28 bytes).
    Removing uart.o(i.ser_ClosePort), (72 bytes).
    Removing uart.o(i.ser_InitPort0), (296 bytes).
    Removing uart.o(i.ser_InitPort1), (292 bytes).
    Removing uart.o(i.ser_LineState), (20 bytes).
    Removing uart.o(i.ser_OpenPort), (72 bytes).
    Removing uart.o(i.ser_Read), (88 bytes).
    Removing uart.o(i.ser_Write), (164 bytes).

470 unused section(s) (total 50250 bytes) removed from the image.

==============================================================================

Image Symbol Table

    Local Symbols

    Symbol Name                              Value     Ov Type        Size  Object(Section)

    ../clib/angel/boardlib.s                 0x00000000   Number         0  boardinit2.o ABSOLUTE
    ../clib/angel/boardlib.s                 0x00000000   Number         0  boardinit1.o ABSOLUTE
    ../clib/angel/boardlib.s                 0x00000000   Number         0  boardshut.o ABSOLUTE
    ../clib/angel/boardlib.s                 0x00000000   Number         0  boardinit3.o ABSOLUTE
    ../clib/angel/handlers.s                 0x00000000   Number         0  __scatter_copy.o ABSOLUTE
    ../clib/angel/handlers.s                 0x00000000   Number         0  __scatter_zi.o ABSOLUTE
    ../clib/angel/kernel.s                   0x00000000   Number         0  __rtentry.o ABSOLUTE
    ../clib/angel/kernel.s                   0x00000000   Number         0  rtexit2.o ABSOLUTE
    ../clib/angel/kernel.s                   0x00000000   Number         0  __rtentry2.o ABSOLUTE
    ../clib/angel/kernel.s                   0x00000000   Number         0  __rtentry4.o ABSOLUTE
    ../clib/angel/kernel.s                   0x00000000   Number         0  rtexit.o ABSOLUTE
    ../clib/angel/rt.s                       0x00000000   Number         0  aeabi_ldiv0.o ABSOLUTE
    ../clib/angel/rt.s                       0x00000000   Number         0  rt_div0.o ABSOLUTE
    ../clib/angel/rt.s                       0x00000000   Number         0  rt_errno_addr_intlibspace.o ABSOLUTE
    ../clib/angel/rt.s                       0x00000000   Number         0  rt_locale.o ABSOLUTE
    ../clib/angel/rt.s                       0x00000000   Number         0  rt_raise.o ABSOLUTE
    ../clib/angel/rt.s                       0x00000000   Number         0  rt_errno_addr.o ABSOLUTE
    ../clib/angel/rt.s                       0x00000000   Number         0  rt_locale_intlibspace.o ABSOLUTE
    ../clib/angel/rt.s                       0x00000000   Number         0  aeabi_ldiv0_sigfpe.o ABSOLUTE
    ../clib/angel/rt.s                       0x00000000   Number         0  rt_ctype_table.o ABSOLUTE
    ../clib/angel/scatter.s                  0x00000000   Number         0  __scatter.o ABSOLUTE
    ../clib/angel/startup.s                  0x00000000   Number         0  __main.o ABSOLUTE
    ../clib/angel/sys.s                      0x00000000   Number         0  libspace.o ABSOLUTE
    ../clib/angel/sys.s                      0x00000000   Number         0  sys_stackheap_outer.o ABSOLUTE
    ../clib/angel/sys.s                      0x00000000   Number         0  indicate_semi.o ABSOLUTE
    ../clib/angel/sys.s                      0x00000000   Number         0  use_no_semi.o ABSOLUTE
    ../clib/angel/sysapp.c                   0x00000000   Number         0  sys_exit.o ABSOLUTE
    ../clib/angel/sysapp.c                   0x00000000   Number         0  sys_command.o ABSOLUTE
    ../clib/angel/sysapp.c                   0x00000000   Number         0  sys_wrch.o ABSOLUTE
    ../clib/armsys.c                         0x00000000   Number         0  argv_veneer.o ABSOLUTE
    ../clib/armsys.c                         0x00000000   Number         0  no_argv.o ABSOLUTE
    ../clib/armsys.c                         0x00000000   Number         0  argv_veneer.o ABSOLUTE
    ../clib/armsys.c                         0x00000000   Number         0  _get_argv_nomalloc.o ABSOLUTE
    ../clib/bigflt.c                         0x00000000   Number         0  bigflt0.o ABSOLUTE
    ../clib/btod.s                           0x00000000   Number         0  btod.o ABSOLUTE
    ../clib/heapalloc.c                      0x00000000   Number         0  hrguard.o ABSOLUTE
    ../clib/heapaux.c                        0x00000000   Number         0  heapauxi.o ABSOLUTE
    ../clib/libinit.s                        0x00000000   Number         0  libshutdown2.o ABSOLUTE
    ../clib/libinit.s                        0x00000000   Number         0  libinit.o ABSOLUTE
    ../clib/libinit.s                        0x00000000   Number         0  libinit2.o ABSOLUTE
    ../clib/libinit.s                        0x00000000   Number         0  libshutdown.o ABSOLUTE
    ../clib/locale.c                         0x00000000   Number         0  _wcrtomb.o ABSOLUTE
    ../clib/locale.s                         0x00000000   Number         0  lc_numeric_c.o ABSOLUTE
    ../clib/locale.s                         0x00000000   Number         0  lc_ctype_c.o ABSOLUTE
    ../clib/longlong.s                       0x00000000   Number         0  lludiv10.o ABSOLUTE
    ../clib/longlong.s                       0x00000000   Number         0  lludivv7m.o ABSOLUTE
    ../clib/memcpset.s                       0x00000000   Number         0  rt_memclr_w.o ABSOLUTE
    ../clib/memcpset.s                       0x00000000   Number         0  strcmpv7m.o ABSOLUTE
    ../clib/memcpset.s                       0x00000000   Number         0  rt_memclr.o ABSOLUTE
    ../clib/misc.s                           0x00000000   Number         0  printf_stubs.o ABSOLUTE
    ../clib/printf.c                         0x00000000   Number         0  _printf_fp_hex.o ABSOLUTE
    ../clib/printf.c                         0x00000000   Number         0  vsnprintf.o ABSOLUTE
    ../clib/printf.c                         0x00000000   Number         0  __2sprintf.o ABSOLUTE
    ../clib/printf.c                         0x00000000   Number         0  noretval__2sprintf.o ABSOLUTE
    ../clib/printf.c                         0x00000000   Number         0  __printf.o ABSOLUTE
    ../clib/printf.c                         0x00000000   Number         0  _printf_pad.o ABSOLUTE
    ../clib/printf.c                         0x00000000   Number         0  _printf_dec.o ABSOLUTE
    ../clib/printf.c                         0x00000000   Number         0  _printf_hex_ll.o ABSOLUTE
    ../clib/printf.c                         0x00000000   Number         0  _printf_hex_int_ll.o ABSOLUTE
    ../clib/printf.c                         0x00000000   Number         0  _printf_hex_ptr.o ABSOLUTE
    ../clib/printf.c                         0x00000000   Number         0  _printf_hex_int_ptr.o ABSOLUTE
    ../clib/printf.c                         0x00000000   Number         0  _printf_hex_ll_ptr.o ABSOLUTE
    ../clib/printf.c                         0x00000000   Number         0  _printf_hex_int_ll_ptr.o ABSOLUTE
    ../clib/printf.c                         0x00000000   Number         0  __printf_flags.o ABSOLUTE
    ../clib/printf.c                         0x00000000   Number         0  __printf_ss.o ABSOLUTE
    ../clib/printf.c                         0x00000000   Number         0  __printf_flags_ss.o ABSOLUTE
    ../clib/printf.c                         0x00000000   Number         0  __printf_wp.o ABSOLUTE
    ../clib/printf.c                         0x00000000   Number         0  __printf_flags_wp.o ABSOLUTE
    ../clib/printf.c                         0x00000000   Number         0  __printf_ss_wp.o ABSOLUTE
    ../clib/printf.c                         0x00000000   Number         0  __printf_flags_ss_wp.o ABSOLUTE
    ../clib/printf.c                         0x00000000   Number         0  _printf_truncate.o ABSOLUTE
    ../clib/printf.c                         0x00000000   Number         0  _printf_str.o ABSOLUTE
    ../clib/printf.c                         0x00000000   Number         0  _printf_intcommon.o ABSOLUTE
    ../clib/printf.c                         0x00000000   Number         0  _printf_charcount.o ABSOLUTE
    ../clib/printf.c                         0x00000000   Number         0  _printf_fp_dec.o ABSOLUTE
    ../clib/printf.c                         0x00000000   Number         0  _printf_char_common.o ABSOLUTE
    ../clib/printf.c                         0x00000000   Number         0  _sputc.o ABSOLUTE
    ../clib/printf.c                         0x00000000   Number         0  _snputc.o ABSOLUTE
    ../clib/printf.c                         0x00000000   Number         0  _printf_wctomb.o ABSOLUTE
    ../clib/printf.c                         0x00000000   Number         0  _printf_longlong_dec.o ABSOLUTE
    ../clib/printf.c                         0x00000000   Number         0  _printf_oct_ll.o ABSOLUTE
    ../clib/printf.c                         0x00000000   Number         0  _printf_oct_int.o ABSOLUTE
    ../clib/printf.c                         0x00000000   Number         0  _printf_oct_int_ll.o ABSOLUTE
    ../clib/printf.c                         0x00000000   Number         0  _printf_hex_int.o ABSOLUTE
    ../clib/printf.c                         0x00000000   Number         0  _printf_wchar.o ABSOLUTE
    ../clib/printf.c                         0x00000000   Number         0  _printf_char.o ABSOLUTE
    ../clib/printf.c                         0x00000000   Number         0  __printf_nopercent.o ABSOLUTE
    ../clib/printf.c                         0x00000000   Number         0  _printf_fp_infnan.o ABSOLUTE
    ../clib/printf_percent.s                 0x00000000   Number         0  _printf_d.o ABSOLUTE
    ../clib/printf_percent.s                 0x00000000   Number         0  _printf_f.o ABSOLUTE
    ../clib/printf_percent.s                 0x00000000   Number         0  _printf_n.o ABSOLUTE
    ../clib/printf_percent.s                 0x00000000   Number         0  _printf_u.o ABSOLUTE
    ../clib/printf_percent.s                 0x00000000   Number         0  _printf_e.o ABSOLUTE
    ../clib/printf_percent.s                 0x00000000   Number         0  _printf_s.o ABSOLUTE
    ../clib/printf_percent.s                 0x00000000   Number         0  _printf_percent.o ABSOLUTE
    ../clib/printf_percent.s                 0x00000000   Number         0  _printf_p.o ABSOLUTE
    ../clib/printf_percent.s                 0x00000000   Number         0  _printf_g.o ABSOLUTE
    ../clib/printf_percent.s                 0x00000000   Number         0  _printf_x.o ABSOLUTE
    ../clib/printf_percent.s                 0x00000000   Number         0  _printf_c.o ABSOLUTE
    ../clib/printf_percent.s                 0x00000000   Number         0  _printf_a.o ABSOLUTE
    ../clib/printf_percent.s                 0x00000000   Number         0  _printf_percent_end.o ABSOLUTE
    ../clib/printf_percent.s                 0x00000000   Number         0  _printf_lli.o ABSOLUTE
    ../clib/printf_percent.s                 0x00000000   Number         0  _printf_llu.o ABSOLUTE
    ../clib/printf_percent.s                 0x00000000   Number         0  _printf_ll.o ABSOLUTE
    ../clib/printf_percent.s                 0x00000000   Number         0  _printf_l.o ABSOLUTE
    ../clib/printf_percent.s                 0x00000000   Number         0  _printf_lc.o ABSOLUTE
    ../clib/printf_percent.s                 0x00000000   Number         0  _printf_lld.o ABSOLUTE
    ../clib/printf_percent.s                 0x00000000   Number         0  _printf_ls.o ABSOLUTE
    ../clib/printf_percent.s                 0x00000000   Number         0  _printf_llo.o ABSOLUTE
    ../clib/printf_percent.s                 0x00000000   Number         0  _printf_llx.o ABSOLUTE
    ../clib/printf_percent.s                 0x00000000   Number         0  _printf_o.o ABSOLUTE
    ../clib/printf_percent.s                 0x00000000   Number         0  _printf_i.o ABSOLUTE
    ../clib/scanf.c                          0x00000000   Number         0  atoi.o ABSOLUTE
    ../clib/scanf.c                          0x00000000   Number         0  strtol.o ABSOLUTE
    ../clib/scanf.c                          0x00000000   Number         0  _strtoul.o ABSOLUTE
    ../clib/scanf.c                          0x00000000   Number         0  _chval.o ABSOLUTE
    ../clib/signal.c                         0x00000000   Number         0  defsig_other.o ABSOLUTE
    ../clib/signal.c                         0x00000000   Number         0  defsig_segv_inner.o ABSOLUTE
    ../clib/signal.c                         0x00000000   Number         0  defsig_cppl_inner.o ABSOLUTE
    ../clib/signal.c                         0x00000000   Number         0  defsig_stak_inner.o ABSOLUTE
    ../clib/signal.c                         0x00000000   Number         0  defsig_rtmem_inner.o ABSOLUTE
    ../clib/signal.c                         0x00000000   Number         0  defsig_rtred_inner.o ABSOLUTE
    ../clib/signal.c                         0x00000000   Number         0  defsig_abrt_inner.o ABSOLUTE
    ../clib/signal.c                         0x00000000   Number         0  defsig_rtmem_formal.o ABSOLUTE
    ../clib/signal.c                         0x00000000   Number         0  defsig_rtmem_outer.o ABSOLUTE
    ../clib/signal.c                         0x00000000   Number         0  defsig_pvfn_inner.o ABSOLUTE
    ../clib/signal.c                         0x00000000   Number         0  defsig_fpe_formal.o ABSOLUTE
    ../clib/signal.c                         0x00000000   Number         0  defsig_fpe_outer.o ABSOLUTE
    ../clib/signal.c                         0x00000000   Number         0  __raise.o ABSOLUTE
    ../clib/signal.c                         0x00000000   Number         0  defsig_exit.o ABSOLUTE
    ../clib/signal.c                         0x00000000   Number         0  defsig_fpe_inner.o ABSOLUTE
    ../clib/signal.c                         0x00000000   Number         0  defsig_general.o ABSOLUTE
    ../clib/signal.s                         0x00000000   Number         0  defsig.o ABSOLUTE
    ../clib/stdlib.c                         0x00000000   Number         0  exit.o ABSOLUTE
    ../clib/string.c                         0x00000000   Number         0  strlcpy.o ABSOLUTE
    ../clib/string.c                         0x00000000   Number         0  strcpy.o ABSOLUTE
    ../clib/string.c                         0x00000000   Number         0  strlen.o ABSOLUTE
    ../clib/string.c                         0x00000000   Number         0  strcat.o ABSOLUTE
    ../clib/string.c                         0x00000000   Number         0  strcspn.o ABSOLUTE
    ../clib/string.c                         0x00000000   Number         0  strtok_int.o ABSOLUTE
    ../clib/string.c                         0x00000000   Number         0  strstr.o ABSOLUTE
    ../clib/string.c                         0x00000000   Number         0  strtok.o ABSOLUTE
    ../clib/string.c                         0x00000000   Number         0  strspn.o ABSOLUTE
    ../fplib/dretinf.s                       0x00000000   Number         0  dretinf.o ABSOLUTE
    ../fplib/f2d.s                           0x00000000   Number         0  f2d.o ABSOLUTE
    ../fplib/fflt.s                          0x00000000   Number         0  fflt_clz.o ABSOLUTE
    ../fplib/fnaninf.s                       0x00000000   Number         0  fnaninf.o ABSOLUTE
    ../fplib/fpinit.s                        0x00000000   Number         0  fpinit.o ABSOLUTE
    ../fplib/istatus.s                       0x00000000   Number         0  istatus.o ABSOLUTE
    ../fplib/printf1.s                       0x00000000   Number         0  printf1.o ABSOLUTE
    ../fplib/printf2.s                       0x00000000   Number         0  printf2.o ABSOLUTE
    ../fplib/printf2a.s                      0x00000000   Number         0  printf2a.o ABSOLUTE
    ../fplib/printf2b.s                      0x00000000   Number         0  printf2b.o ABSOLUTE
    ../fplib/usenofp.s                       0x00000000   Number         0  usenofp.o ABSOLUTE
    ../mathlib/fpclassify.c                  0x00000000   Number         0  fpclassify.o ABSOLUTE
    Components\\src\\Peripheral.c            0x00000000   Number         0  peripheral.o ABSOLUTE
    Components\src\Peripheral.c              0x00000000   Number         0  peripheral.o ABSOLUTE
    Lib\CLib__1_0_0_4\src\Bool.c             0x00000000   Number         0  bool.o ABSOLUTE
    Lib\CLib__1_0_0_4\src\Button.c           0x00000000   Number         0  button.o ABSOLUTE
    Lib\CLib__1_0_0_4\src\Bytes.c            0x00000000   Number         0  bytes.o ABSOLUTE
    Lib\CLib__1_0_0_4\src\Capture.c          0x00000000   Number         0  capture.o ABSOLUTE
    Lib\CLib__1_0_0_4\src\Fifo.c             0x00000000   Number         0  fifo.o ABSOLUTE
    Lib\CLib__1_0_0_4\src\Parameters.c       0x00000000   Number         0  parameters.o ABSOLUTE
    Lib\CLib__1_0_0_4\src\Pulse.c            0x00000000   Number         0  pulse.o ABSOLUTE
    Lib\CLib__1_0_0_4\src\Serial.c           0x00000000   Number         0  serial.o ABSOLUTE
    Lib\CLib__1_0_0_4\src\Str.c              0x00000000   Number         0  str.o ABSOLUTE
    Lib\CLib__1_0_0_4\src\SytemTime.c        0x00000000   Number         0  sytemtime.o ABSOLUTE
    Lib\CLib__1_0_0_4\src\Timer.c            0x00000000   Number         0  timer.o ABSOLUTE
    Lib\CLib__1_0_0_4\src\Uint32.c           0x00000000   Number         0  uint32.o ABSOLUTE
    Lib\CLib__1_0_0_4\src\Utils.c            0x00000000   Number         0  utils.o ABSOLUTE
    Lib\Drivers\source\lpc17xx_adc.c         0x00000000   Number         0  lpc17xx_adc.o ABSOLUTE
    Lib\Drivers\source\lpc17xx_can.c         0x00000000   Number         0  lpc17xx_can.o ABSOLUTE
    Lib\Drivers\source\lpc17xx_clkpwr.c      0x00000000   Number         0  lpc17xx_clkpwr.o ABSOLUTE
    Lib\Drivers\source\lpc17xx_dac.c         0x00000000   Number         0  lpc17xx_dac.o ABSOLUTE
    Lib\Drivers\source\lpc17xx_emac.c        0x00000000   Number         0  lpc17xx_emac.o ABSOLUTE
    Lib\Drivers\source\lpc17xx_exti.c        0x00000000   Number         0  lpc17xx_exti.o ABSOLUTE
    Lib\Drivers\source\lpc17xx_gpdma.c       0x00000000   Number         0  lpc17xx_gpdma.o ABSOLUTE
    Lib\Drivers\source\lpc17xx_gpio.c        0x00000000   Number         0  lpc17xx_gpio.o ABSOLUTE
    Lib\Drivers\source\lpc17xx_i2c.c         0x00000000   Number         0  lpc17xx_i2c.o ABSOLUTE
    Lib\Drivers\source\lpc17xx_i2s.c         0x00000000   Number         0  lpc17xx_i2s.o ABSOLUTE
    Lib\Drivers\source\lpc17xx_iap.c         0x00000000   Number         0  lpc17xx_iap.o ABSOLUTE
    Lib\Drivers\source\lpc17xx_mcpwm.c       0x00000000   Number         0  lpc17xx_mcpwm.o ABSOLUTE
    Lib\Drivers\source\lpc17xx_nvic.c        0x00000000   Number         0  lpc17xx_nvic.o ABSOLUTE
    Lib\Drivers\source\lpc17xx_pwm.c         0x00000000   Number         0  lpc17xx_pwm.o ABSOLUTE
    Lib\Drivers\source\lpc17xx_qei.c         0x00000000   Number         0  lpc17xx_qei.o ABSOLUTE
    Lib\Drivers\source\lpc17xx_rit.c         0x00000000   Number         0  lpc17xx_rit.o ABSOLUTE
    Lib\Drivers\source\lpc17xx_rtc.c         0x00000000   Number         0  lpc17xx_rtc.o ABSOLUTE
    Lib\Drivers\source\lpc17xx_spi.c         0x00000000   Number         0  lpc17xx_spi.o ABSOLUTE
    Lib\Drivers\source\lpc17xx_ssp.c         0x00000000   Number         0  lpc17xx_ssp.o ABSOLUTE
    Lib\Drivers\source\lpc17xx_timer.c       0x00000000   Number         0  lpc17xx_timer.o ABSOLUTE
    Lib\Drivers\source\lpc17xx_uart.c        0x00000000   Number         0  lpc17xx_uart.o ABSOLUTE
    Lib\Drivers\source\lpc17xx_wdt.c         0x00000000   Number         0  lpc17xx_wdt.o ABSOLUTE
    Lib\Usb_Drivers\Src\cdcuser.c            0x00000000   Number         0  cdcuser.o ABSOLUTE
    Lib\Usb_Drivers\Src\uart.c               0x00000000   Number         0  uart.o ABSOLUTE
    Lib\Usb_Drivers\Src\usbcore.c            0x00000000   Number         0  usbcore.o ABSOLUTE
    Lib\Usb_Drivers\Src\usbdesc.c            0x00000000   Number         0  usbdesc.o ABSOLUTE
    Lib\Usb_Drivers\Src\usbhw.c              0x00000000   Number         0  usbhw.o ABSOLUTE
    Lib\Usb_Drivers\Src\usbuser.c            0x00000000   Number         0  usbuser.o ABSOLUTE
    Lib\\CLib__1_0_0_4\\src\\Bool.c          0x00000000   Number         0  bool.o ABSOLUTE
    Lib\\CLib__1_0_0_4\\src\\Button.c        0x00000000   Number         0  button.o ABSOLUTE
    Lib\\CLib__1_0_0_4\\src\\Bytes.c         0x00000000   Number         0  bytes.o ABSOLUTE
    Lib\\CLib__1_0_0_4\\src\\Capture.c       0x00000000   Number         0  capture.o ABSOLUTE
    Lib\\CLib__1_0_0_4\\src\\Fifo.c          0x00000000   Number         0  fifo.o ABSOLUTE
    Lib\\CLib__1_0_0_4\\src\\Parameters.c    0x00000000   Number         0  parameters.o ABSOLUTE
    Lib\\CLib__1_0_0_4\\src\\Pulse.c         0x00000000   Number         0  pulse.o ABSOLUTE
    Lib\\CLib__1_0_0_4\\src\\Serial.c        0x00000000   Number         0  serial.o ABSOLUTE
    Lib\\CLib__1_0_0_4\\src\\Str.c           0x00000000   Number         0  str.o ABSOLUTE
    Lib\\CLib__1_0_0_4\\src\\SytemTime.c     0x00000000   Number         0  sytemtime.o ABSOLUTE
    Lib\\CLib__1_0_0_4\\src\\Timer.c         0x00000000   Number         0  timer.o ABSOLUTE
    Lib\\CLib__1_0_0_4\\src\\Uint32.c        0x00000000   Number         0  uint32.o ABSOLUTE
    Lib\\CLib__1_0_0_4\\src\\Utils.c         0x00000000   Number         0  utils.o ABSOLUTE
    Lib\\Drivers\\source\\lpc17xx_adc.c      0x00000000   Number         0  lpc17xx_adc.o ABSOLUTE
    Lib\\Drivers\\source\\lpc17xx_can.c      0x00000000   Number         0  lpc17xx_can.o ABSOLUTE
    Lib\\Drivers\\source\\lpc17xx_clkpwr.c   0x00000000   Number         0  lpc17xx_clkpwr.o ABSOLUTE
    Lib\\Drivers\\source\\lpc17xx_dac.c      0x00000000   Number         0  lpc17xx_dac.o ABSOLUTE
    Lib\\Drivers\\source\\lpc17xx_emac.c     0x00000000   Number         0  lpc17xx_emac.o ABSOLUTE
    Lib\\Drivers\\source\\lpc17xx_exti.c     0x00000000   Number         0  lpc17xx_exti.o ABSOLUTE
    Lib\\Drivers\\source\\lpc17xx_gpdma.c    0x00000000   Number         0  lpc17xx_gpdma.o ABSOLUTE
    Lib\\Drivers\\source\\lpc17xx_gpio.c     0x00000000   Number         0  lpc17xx_gpio.o ABSOLUTE
    Lib\\Drivers\\source\\lpc17xx_i2c.c      0x00000000   Number         0  lpc17xx_i2c.o ABSOLUTE
    Lib\\Drivers\\source\\lpc17xx_i2s.c      0x00000000   Number         0  lpc17xx_i2s.o ABSOLUTE
    Lib\\Drivers\\source\\lpc17xx_mcpwm.c    0x00000000   Number         0  lpc17xx_mcpwm.o ABSOLUTE
    Lib\\Drivers\\source\\lpc17xx_nvic.c     0x00000000   Number         0  lpc17xx_nvic.o ABSOLUTE
    Lib\\Drivers\\source\\lpc17xx_pwm.c      0x00000000   Number         0  lpc17xx_pwm.o ABSOLUTE
    Lib\\Drivers\\source\\lpc17xx_qei.c      0x00000000   Number         0  lpc17xx_qei.o ABSOLUTE
    Lib\\Drivers\\source\\lpc17xx_rit.c      0x00000000   Number         0  lpc17xx_rit.o ABSOLUTE
    Lib\\Drivers\\source\\lpc17xx_rtc.c      0x00000000   Number         0  lpc17xx_rtc.o ABSOLUTE
    Lib\\Drivers\\source\\lpc17xx_spi.c      0x00000000   Number         0  lpc17xx_spi.o ABSOLUTE
    Lib\\Drivers\\source\\lpc17xx_ssp.c      0x00000000   Number         0  lpc17xx_ssp.o ABSOLUTE
    Lib\\Drivers\\source\\lpc17xx_timer.c    0x00000000   Number         0  lpc17xx_timer.o ABSOLUTE
    Lib\\Drivers\\source\\lpc17xx_uart.c     0x00000000   Number         0  lpc17xx_uart.o ABSOLUTE
    Lib\\Drivers\\source\\lpc17xx_wdt.c      0x00000000   Number         0  lpc17xx_wdt.o ABSOLUTE
    Lib\\Usb_Drivers\\Src\\cdcuser.c         0x00000000   Number         0  cdcuser.o ABSOLUTE
    Lib\\Usb_Drivers\\Src\\uart.c            0x00000000   Number         0  uart.o ABSOLUTE
    Lib\\Usb_Drivers\\Src\\usbhw.c           0x00000000   Number         0  usbhw.o ABSOLUTE
    Src\Dev.c                                0x00000000   Number         0  dev.o ABSOLUTE
    Src\User.c                               0x00000000   Number         0  user.o ABSOLUTE
    Src\\Dev.c                               0x00000000   Number         0  dev.o ABSOLUTE
    Src\\User.c                              0x00000000   Number         0  user.o ABSOLUTE
    Src\\main.c                              0x00000000   Number         0  main.o ABSOLUTE
    Src\\system_LPC17xx.c                    0x00000000   Number         0  system_lpc17xx.o ABSOLUTE
    Src\main.c                               0x00000000   Number         0  main.o ABSOLUTE
    Src\system_LPC17xx.c                     0x00000000   Number         0  system_lpc17xx.o ABSOLUTE
    dc.s                                     0x00000000   Number         0  dc.o ABSOLUTE
    src\Handlers.c                           0x00000000   Number         0  handlers.o ABSOLUTE
    src\LPC17xx_it.c                         0x00000000   Number         0  lpc17xx_it.o ABSOLUTE
    src\\Handlers.c                          0x00000000   Number         0  handlers.o ABSOLUTE
    src\\LPC17xx_it.c                        0x00000000   Number         0  lpc17xx_it.o ABSOLUTE
    startup_LPC17xx.s                        0x00000000   Number         0  startup_lpc17xx.o ABSOLUTE
    RESET                                    0x00002000   Section      204  startup_lpc17xx.o(RESET)
    !!!main                                  0x000020cc   Section        8  __main.o(!!!main)
    !!!scatter                               0x000020d4   Section       52  __scatter.o(!!!scatter)
    !!handler_copy                           0x00002108   Section       26  __scatter_copy.o(!!handler_copy)
    !!handler_zi                             0x00002124   Section       28  __scatter_zi.o(!!handler_zi)
    .ARM.Collect$$_printf_percent$$00000000  0x00002140   Section        0  _printf_percent.o(.ARM.Collect$$_printf_percent$$00000000)
    .ARM.Collect$$_printf_percent$$00000001  0x00002140   Section        6  _printf_n.o(.ARM.Collect$$_printf_percent$$00000001)
    .ARM.Collect$$_printf_percent$$00000002  0x00002146   Section        6  _printf_p.o(.ARM.Collect$$_printf_percent$$00000002)
    .ARM.Collect$$_printf_percent$$00000003  0x0000214c   Section        6  _printf_f.o(.ARM.Collect$$_printf_percent$$00000003)
    .ARM.Collect$$_printf_percent$$00000004  0x00002152   Section        6  _printf_e.o(.ARM.Collect$$_printf_percent$$00000004)
    .ARM.Collect$$_printf_percent$$00000005  0x00002158   Section        6  _printf_g.o(.ARM.Collect$$_printf_percent$$00000005)
    .ARM.Collect$$_printf_percent$$00000006  0x0000215e   Section        6  _printf_a.o(.ARM.Collect$$_printf_percent$$00000006)
    .ARM.Collect$$_printf_percent$$00000007  0x00002164   Section       10  _printf_ll.o(.ARM.Collect$$_printf_percent$$00000007)
    .ARM.Collect$$_printf_percent$$00000008  0x0000216e   Section        6  _printf_i.o(.ARM.Collect$$_printf_percent$$00000008)
    .ARM.Collect$$_printf_percent$$00000009  0x00002174   Section        6  _printf_d.o(.ARM.Collect$$_printf_percent$$00000009)
    .ARM.Collect$$_printf_percent$$0000000A  0x0000217a   Section        6  _printf_u.o(.ARM.Collect$$_printf_percent$$0000000A)
    .ARM.Collect$$_printf_percent$$0000000B  0x00002180   Section        6  _printf_o.o(.ARM.Collect$$_printf_percent$$0000000B)
    .ARM.Collect$$_printf_percent$$0000000C  0x00002186   Section        6  _printf_x.o(.ARM.Collect$$_printf_percent$$0000000C)
    .ARM.Collect$$_printf_percent$$0000000D  0x0000218c   Section        6  _printf_lli.o(.ARM.Collect$$_printf_percent$$0000000D)
    .ARM.Collect$$_printf_percent$$0000000E  0x00002192   Section        6  _printf_lld.o(.ARM.Collect$$_printf_percent$$0000000E)
    .ARM.Collect$$_printf_percent$$0000000F  0x00002198   Section        6  _printf_llu.o(.ARM.Collect$$_printf_percent$$0000000F)
    .ARM.Collect$$_printf_percent$$00000010  0x0000219e   Section        6  _printf_llo.o(.ARM.Collect$$_printf_percent$$00000010)
    .ARM.Collect$$_printf_percent$$00000011  0x000021a4   Section        6  _printf_llx.o(.ARM.Collect$$_printf_percent$$00000011)
    .ARM.Collect$$_printf_percent$$00000012  0x000021aa   Section       10  _printf_l.o(.ARM.Collect$$_printf_percent$$00000012)
    .ARM.Collect$$_printf_percent$$00000013  0x000021b4   Section        6  _printf_c.o(.ARM.Collect$$_printf_percent$$00000013)
    .ARM.Collect$$_printf_percent$$00000014  0x000021ba   Section        6  _printf_s.o(.ARM.Collect$$_printf_percent$$00000014)
    .ARM.Collect$$_printf_percent$$00000015  0x000021c0   Section        6  _printf_lc.o(.ARM.Collect$$_printf_percent$$00000015)
    .ARM.Collect$$_printf_percent$$00000016  0x000021c6   Section        6  _printf_ls.o(.ARM.Collect$$_printf_percent$$00000016)
    .ARM.Collect$$_printf_percent$$00000017  0x000021cc   Section        4  _printf_percent_end.o(.ARM.Collect$$_printf_percent$$00000017)
    .ARM.Collect$$libinit$$00000000          0x000021d0   Section        2  libinit.o(.ARM.Collect$$libinit$$00000000)
    .ARM.Collect$$libinit$$00000002          0x000021d2   Section        0  libinit2.o(.ARM.Collect$$libinit$$00000002)
    .ARM.Collect$$libinit$$00000004          0x000021d2   Section        0  libinit2.o(.ARM.Collect$$libinit$$00000004)
    .ARM.Collect$$libinit$$0000000A          0x000021d2   Section        0  libinit2.o(.ARM.Collect$$libinit$$0000000A)
    .ARM.Collect$$libinit$$0000000C          0x000021d2   Section        0  libinit2.o(.ARM.Collect$$libinit$$0000000C)
    .ARM.Collect$$libinit$$0000000E          0x000021d2   Section        0  libinit2.o(.ARM.Collect$$libinit$$0000000E)
    .ARM.Collect$$libinit$$0000000F          0x000021d2   Section        6  libinit2.o(.ARM.Collect$$libinit$$0000000F)
    .ARM.Collect$$libinit$$00000011          0x000021d8   Section        0  libinit2.o(.ARM.Collect$$libinit$$00000011)
    .ARM.Collect$$libinit$$00000012          0x000021d8   Section       12  libinit2.o(.ARM.Collect$$libinit$$00000012)
    .ARM.Collect$$libinit$$00000013          0x000021e4   Section        0  libinit2.o(.ARM.Collect$$libinit$$00000013)
    .ARM.Collect$$libinit$$00000015          0x000021e4   Section        0  libinit2.o(.ARM.Collect$$libinit$$00000015)
    .ARM.Collect$$libinit$$00000016          0x000021e4   Section       10  libinit2.o(.ARM.Collect$$libinit$$00000016)
    .ARM.Collect$$libinit$$00000017          0x000021ee   Section        0  libinit2.o(.ARM.Collect$$libinit$$00000017)
    .ARM.Collect$$libinit$$00000019          0x000021ee   Section        0  libinit2.o(.ARM.Collect$$libinit$$00000019)
    .ARM.Collect$$libinit$$0000001B          0x000021ee   Section        0  libinit2.o(.ARM.Collect$$libinit$$0000001B)
    .ARM.Collect$$libinit$$0000001D          0x000021ee   Section        0  libinit2.o(.ARM.Collect$$libinit$$0000001D)
    .ARM.Collect$$libinit$$0000001F          0x000021ee   Section        0  libinit2.o(.ARM.Collect$$libinit$$0000001F)
    .ARM.Collect$$libinit$$00000021          0x000021ee   Section        0  libinit2.o(.ARM.Collect$$libinit$$00000021)
    .ARM.Collect$$libinit$$00000023          0x000021ee   Section        0  libinit2.o(.ARM.Collect$$libinit$$00000023)
    .ARM.Collect$$libinit$$00000025          0x000021ee   Section        0  libinit2.o(.ARM.Collect$$libinit$$00000025)
    .ARM.Collect$$libinit$$0000002C          0x000021ee   Section        0  libinit2.o(.ARM.Collect$$libinit$$0000002C)
    .ARM.Collect$$libinit$$0000002E          0x000021ee   Section        0  libinit2.o(.ARM.Collect$$libinit$$0000002E)
    .ARM.Collect$$libinit$$00000030          0x000021ee   Section        0  libinit2.o(.ARM.Collect$$libinit$$00000030)
    .ARM.Collect$$libinit$$00000032          0x000021ee   Section        0  libinit2.o(.ARM.Collect$$libinit$$00000032)
    .ARM.Collect$$libinit$$00000033          0x000021ee   Section        2  libinit2.o(.ARM.Collect$$libinit$$00000033)
    .ARM.Collect$$libshutdown$$00000000      0x000021f0   Section        2  libshutdown.o(.ARM.Collect$$libshutdown$$00000000)
    .ARM.Collect$$libshutdown$$00000002      0x000021f2   Section        0  libshutdown2.o(.ARM.Collect$$libshutdown$$00000002)
    .ARM.Collect$$libshutdown$$00000004      0x000021f2   Section        0  libshutdown2.o(.ARM.Collect$$libshutdown$$00000004)
    .ARM.Collect$$libshutdown$$00000007      0x000021f2   Section        0  libshutdown2.o(.ARM.Collect$$libshutdown$$00000007)
    .ARM.Collect$$libshutdown$$0000000A      0x000021f2   Section        0  libshutdown2.o(.ARM.Collect$$libshutdown$$0000000A)
    .ARM.Collect$$libshutdown$$0000000C      0x000021f2   Section        0  libshutdown2.o(.ARM.Collect$$libshutdown$$0000000C)
    .ARM.Collect$$libshutdown$$0000000F      0x000021f2   Section        0  libshutdown2.o(.ARM.Collect$$libshutdown$$0000000F)
    .ARM.Collect$$libshutdown$$00000010      0x000021f2   Section        2  libshutdown2.o(.ARM.Collect$$libshutdown$$00000010)
    .ARM.Collect$$rtentry$$00000000          0x000021f4   Section        0  __rtentry.o(.ARM.Collect$$rtentry$$00000000)
    .ARM.Collect$$rtentry$$00000002          0x000021f4   Section        0  __rtentry2.o(.ARM.Collect$$rtentry$$00000002)
    .ARM.Collect$$rtentry$$00000004          0x000021f4   Section        6  __rtentry4.o(.ARM.Collect$$rtentry$$00000004)
    .ARM.Collect$$rtentry$$00000009          0x000021fa   Section        0  __rtentry2.o(.ARM.Collect$$rtentry$$00000009)
    .ARM.Collect$$rtentry$$0000000A          0x000021fa   Section        4  __rtentry2.o(.ARM.Collect$$rtentry$$0000000A)
    .ARM.Collect$$rtentry$$0000000C          0x000021fe   Section        0  __rtentry2.o(.ARM.Collect$$rtentry$$0000000C)
    .ARM.Collect$$rtentry$$0000000D          0x000021fe   Section        8  __rtentry2.o(.ARM.Collect$$rtentry$$0000000D)
    .ARM.Collect$$rtexit$$00000000           0x00002206   Section        2  rtexit.o(.ARM.Collect$$rtexit$$00000000)
    .ARM.Collect$$rtexit$$00000002           0x00002208   Section        0  rtexit2.o(.ARM.Collect$$rtexit$$00000002)
    .ARM.Collect$$rtexit$$00000003           0x00002208   Section        4  rtexit2.o(.ARM.Collect$$rtexit$$00000003)
    .ARM.Collect$$rtexit$$00000004           0x0000220c   Section        6  rtexit2.o(.ARM.Collect$$rtexit$$00000004)
    .emb_text                                0x00002214   Section       14  peripheral.o(.emb_text)
    .text                                    0x00002224   Section       60  startup_lpc17xx.o(.text)
    .text                                    0x00002260   Section        0  vsnprintf.o(.text)
    .text                                    0x00002294   Section        0  _printf_pad.o(.text)
    .text                                    0x000022e4   Section        0  _printf_dec.o(.text)
    .text                                    0x0000235c   Section        0  _printf_hex_int_ll_ptr.o(.text)
    _printf_hex_common                       0x0000235d   Thumb Code     0  _printf_hex_int_ll_ptr.o(.text)
    .text                                    0x000023f0   Section        0  __printf_flags_ss_wp.o(.text)
    .text                                    0x00002578   Section        0  atoi.o(.text)
    .text                                    0x00002592   Section        0  strstr.o(.text)
    .text                                    0x000025b6   Section        0  strlen.o(.text)
    .text                                    0x000025f4   Section        0  strcat.o(.text)
    .text                                    0x0000260c   Section       68  rt_memclr.o(.text)
    .text                                    0x00002650   Section       78  rt_memclr_w.o(.text)
    .text                                    0x000026a0   Section      128  strcmpv7m.o(.text)
    .text                                    0x00002720   Section        0  heapauxi.o(.text)
    .text                                    0x00002728   Section        8  rt_errno_addr_intlibspace.o(.text)
    .text                                    0x00002730   Section        0  _printf_truncate.o(.text)
    .text                                    0x00002754   Section        0  _printf_str.o(.text)
    .text                                    0x000027a6   Section        0  _printf_intcommon.o(.text)
    .text                                    0x00002858   Section        0  _printf_charcount.o(.text)
    .text                                    0x00002880   Section        0  _printf_fp_dec.o(.text)
    _fp_digits                               0x00002883   Thumb Code   432  _printf_fp_dec.o(.text)
    .text                                    0x00002ca0   Section        0  _printf_char_common.o(.text)
    _printf_input_char                       0x00002ca1   Thumb Code    10  _printf_char_common.o(.text)
    .text                                    0x00002cd0   Section        0  _sputc.o(.text)
    .text                                    0x00002cda   Section        0  _snputc.o(.text)
    .text                                    0x00002cec   Section        0  _printf_wctomb.o(.text)
    .text                                    0x00002da8   Section        0  _printf_longlong_dec.o(.text)
    .text                                    0x00002e24   Section        0  _printf_oct_int_ll.o(.text)
    _printf_longlong_oct_internal            0x00002e25   Thumb Code     0  _printf_oct_int_ll.o(.text)
    .text                                    0x00002e94   Section        0  strtol.o(.text)
    .text                                    0x00002f04   Section        8  libspace.o(.text)
    .text                                    0x00002f0c   Section       16  rt_ctype_table.o(.text)
    .text                                    0x00002f1c   Section        8  rt_locale_intlibspace.o(.text)
    .text                                    0x00002f24   Section      138  lludiv10.o(.text)
    .text                                    0x00002fb0   Section        0  _printf_fp_hex.o(.text)
    .text                                    0x000032ac   Section        0  _printf_fp_infnan.o(.text)
    .text                                    0x0000332c   Section        0  _printf_char.o(.text)
    .text                                    0x00003358   Section        0  _printf_wchar.o(.text)
    .text                                    0x00003384   Section        0  _strtoul.o(.text)
    .text                                    0x00003424   Section        0  bigflt0.o(.text)
    .text                                    0x00003508   Section        0  _wcrtomb.o(.text)
    .text                                    0x00003548   Section       74  sys_stackheap_outer.o(.text)
    .text                                    0x00003592   Section        0  _chval.o(.text)
    .text                                    0x000035ae   Section        0  exit.o(.text)
    .text                                    0x000035c0   Section        0  sys_exit.o(.text)
    .text                                    0x000035cc   Section        2  use_no_semi.o(.text)
    .text                                    0x000035ce   Section        0  indicate_semi.o(.text)
    CL$$btod_d2e                             0x000035ce   Section       62  btod.o(CL$$btod_d2e)
    CL$$btod_d2e_denorm_low                  0x0000360c   Section       70  btod.o(CL$$btod_d2e_denorm_low)
    CL$$btod_d2e_norm_op1                    0x00003652   Section       96  btod.o(CL$$btod_d2e_norm_op1)
    CL$$btod_div_common                      0x000036b2   Section      824  btod.o(CL$$btod_div_common)
    CL$$btod_e2e                             0x000039ea   Section      220  btod.o(CL$$btod_e2e)
    CL$$btod_ediv                            0x00003ac6   Section       42  btod.o(CL$$btod_ediv)
    CL$$btod_emul                            0x00003af0   Section       42  btod.o(CL$$btod_emul)
    CL$$btod_mult_common                     0x00003b1a   Section      580  btod.o(CL$$btod_mult_common)
    i.Button_Events                          0x00003d5e   Section        0  button.o(i.Button_Events)
    i.Button_Fsm                             0x00003d74   Section        0  button.o(i.Button_Fsm)
    i.Button_Handler                         0x00003db8   Section        0  handlers.o(i.Button_Handler)
    i.Button_Init                            0x00003e50   Section        0  button.o(i.Button_Init)
    i.CDC_BulkIn                             0x00003e68   Section        0  cdcuser.o(i.CDC_BulkIn)
    i.CDC_BulkOut                            0x00003e74   Section        0  cdcuser.o(i.CDC_BulkOut)
    i.CDC_ClearCommFeature                   0x00003e90   Section        0  cdcuser.o(i.CDC_ClearCommFeature)
    i.CDC_GetCommFeature                     0x00003e96   Section        0  cdcuser.o(i.CDC_GetCommFeature)
    i.CDC_GetEncapsulatedResponse            0x00003e9c   Section        0  cdcuser.o(i.CDC_GetEncapsulatedResponse)
    i.CDC_GetLineCoding                      0x00003ea0   Section        0  cdcuser.o(i.CDC_GetLineCoding)
    i.CDC_GetSerialState                     0x00003ee0   Section        0  cdcuser.o(i.CDC_GetSerialState)
    i.CDC_NotificationIn                     0x00003f6c   Section        0  cdcuser.o(i.CDC_NotificationIn)
    i.CDC_SendBreak                          0x00003fac   Section        0  cdcuser.o(i.CDC_SendBreak)
    i.CDC_SendEncapsulatedCommand            0x00003fb2   Section        0  cdcuser.o(i.CDC_SendEncapsulatedCommand)
    i.CDC_SetCommFeature                     0x00003fb6   Section        0  cdcuser.o(i.CDC_SetCommFeature)
    i.CDC_SetControlLineState                0x00003fbc   Section        0  cdcuser.o(i.CDC_SetControlLineState)
    i.CDC_SetLineCoding                      0x00003fc2   Section        0  cdcuser.o(i.CDC_SetLineCoding)
    i.CDC_WrOutBuf                           0x00003fc8   Section        0  cdcuser.o(i.CDC_WrOutBuf)
    i.CLKPWR_ConfigPPWR                      0x00003fe4   Section        0  lpc17xx_clkpwr.o(i.CLKPWR_ConfigPPWR)
    i.CLKPWR_SetPCLKDiv                      0x0000401c   Section        0  lpc17xx_clkpwr.o(i.CLKPWR_SetPCLKDiv)
    i.Config                                 0x00004084   Section        0  user.o(i.Config)
    i.EINT3_IRQHandler                       0x0000408c   Section        0  lpc17xx_it.o(i.EINT3_IRQHandler)
    i.EPAdr                                  0x000040b8   Section        0  usbhw.o(i.EPAdr)
    i.EXTI_ClearEXTIFlag                     0x000040c8   Section        0  lpc17xx_exti.o(i.EXTI_ClearEXTIFlag)
    i.Fifo_Init                              0x000040d8   Section        0  fifo.o(i.Fifo_Init)
    i.Fifo_OnInactive                        0x00004106   Section        0  fifo.o(i.Fifo_OnInactive)
    i.Fifo_Read                              0x0000411c   Section        0  fifo.o(i.Fifo_Read)
    i.Fifo_Write                             0x00004170   Section        0  fifo.o(i.Fifo_Write)
    i.GPIO_Init                              0x000041ec   Section        0  lpc17xx_gpio.o(i.GPIO_Init)
    i.IO_Config                              0x000042ec   Section        0  peripheral.o(i.IO_Config)
    i.IO_Events                              0x00004384   Section        0  dev.o(i.IO_Events)
    i.IO_Init                                0x000043c8   Section        0  dev.o(i.IO_Init)
    i.Loop                                   0x000043f0   Section        0  user.o(i.Loop)
    i.NVIC_Config                            0x000043fc   Section        0  peripheral.o(i.NVIC_Config)
    i.NVIC_Init                              0x00004424   Section        0  lpc17xx_nvic.o(i.NVIC_Init)
    i.PWM1_IRQHandler                        0x000044a4   Section        0  lpc17xx_it.o(i.PWM1_IRQHandler)
    i.PWM_ChannelCmd                         0x00004520   Section        0  lpc17xx_pwm.o(i.PWM_ChannelCmd)
    i.PWM_ChannelConfig                      0x000045bc   Section        0  lpc17xx_pwm.o(i.PWM_ChannelConfig)
    i.PWM_ClearIntPending                    0x0000465c   Section        0  lpc17xx_pwm.o(i.PWM_ClearIntPending)
    i.PWM_Cmd                                0x000046d4   Section        0  lpc17xx_pwm.o(i.PWM_Cmd)
    i.PWM_Config                             0x0000473c   Section        0  peripheral.o(i.PWM_Config)
    i.PWM_ConfigMatch                        0x0000487c   Section        0  lpc17xx_pwm.o(i.PWM_ConfigMatch)
    i.PWM_CounterCmd                         0x000049c0   Section        0  lpc17xx_pwm.o(i.PWM_CounterCmd)
    i.PWM_GetIntStatus                       0x00004a28   Section        0  lpc17xx_pwm.o(i.PWM_GetIntStatus)
    i.PWM_Init                               0x00004aa8   Section        0  lpc17xx_pwm.o(i.PWM_Init)
    i.PWM_MatchUpdate                        0x00004b68   Section        0  lpc17xx_pwm.o(i.PWM_MatchUpdate)
    i.PWM_ResetCounter                       0x00004c28   Section        0  lpc17xx_pwm.o(i.PWM_ResetCounter)
    i.Peripheral                             0x00004c78   Section        0  peripheral.o(i.Peripheral)
    i.RdCmdDat                               0x00004c90   Section        0  usbhw.o(i.RdCmdDat)
    i.Serial_Events                          0x00004cc0   Section        0  serial.o(i.Serial_Events)
    i.SysTick_Handler                        0x00004cfc   Section        0  lpc17xx_it.o(i.SysTick_Handler)
    i.SystemInit                             0x00004d18   Section        0  system_lpc17xx.o(i.SystemInit)
    i.SystemTime_GetTime                     0x00004e58   Section        0  sytemtime.o(i.SystemTime_GetTime)
    i.SystemTime_Timer                       0x00004e64   Section        0  sytemtime.o(i.SystemTime_Timer)
    i.Systick_Config                         0x00004e74   Section        0  peripheral.o(i.Systick_Config)
    i.TIMER0_IRQHandler                      0x00004ed0   Section        0  lpc17xx_it.o(i.TIMER0_IRQHandler)
    i.TIM_ClearIntPending                    0x00004eea   Section        0  lpc17xx_timer.o(i.TIM_ClearIntPending)
    i.TIM_GetIntStatus                       0x00004ef2   Section        0  lpc17xx_timer.o(i.TIM_GetIntStatus)
    i.Timer_Elapsed                          0x00004f02   Section        0  timer.o(i.Timer_Elapsed)
    i.Timer_GetTime                          0x00004f28   Section        0  timer.o(i.Timer_GetTime)
    i.Timer_Init                             0x00004f5c   Section        0  timer.o(i.Timer_Init)
    i.Timer_Start                            0x00004f66   Section        0  timer.o(i.Timer_Start)
    i.Timer_Stop                             0x00004f76   Section        0  timer.o(i.Timer_Stop)
    i.UART0_IRQHandler                       0x00004f7c   Section        0  lpc17xx_it.o(i.UART0_IRQHandler)
    i.UART1_IRQHandler                       0x00004fa8   Section        0  uart.o(i.UART1_IRQHandler)
    i.UART_GetIntId                          0x00005060   Section        0  lpc17xx_uart.o(i.UART_GetIntId)
    i.UART_GetLineStatus                     0x000050c8   Section        0  lpc17xx_uart.o(i.UART_GetLineStatus)
    i.USB_ClrStallEP                         0x00005134   Section        0  usbhw.o(i.USB_ClrStallEP)
    i.USB_Config                             0x00005154   Section        0  peripheral.o(i.USB_Config)
    i.USB_ConfigEP                           0x00005194   Section        0  usbhw.o(i.USB_ConfigEP)
    i.USB_Configure                          0x000051e0   Section        0  usbhw.o(i.USB_Configure)
    i.USB_Configure_Event                    0x00005224   Section        0  usbuser.o(i.USB_Configure_Event)
    i.USB_Connect                            0x00005228   Section        0  usbhw.o(i.USB_Connect)
    i.USB_DataInStage                        0x00005248   Section        0  usbcore.o(i.USB_DataInStage)
    i.USB_DataOutStage                       0x00005280   Section        0  usbcore.o(i.USB_DataOutStage)
    i.USB_DirCtrlEP                          0x000052a8   Section        0  usbhw.o(i.USB_DirCtrlEP)
    i.USB_DisableEP                          0x000052ac   Section        0  usbhw.o(i.USB_DisableEP)
    i.USB_Disconnect                         0x000052d0   Section        0  peripheral.o(i.USB_Disconnect)
    i.USB_EnableEP                           0x00005308   Section        0  usbhw.o(i.USB_EnableEP)
    i.USB_EndPoint0                          0x00005328   Section        0  usbcore.o(i.USB_EndPoint0)
    i.USB_EndPoint1                          0x00005694   Section        0  usbuser.o(i.USB_EndPoint1)
    i.USB_EndPoint2                          0x000056bc   Section        0  usbuser.o(i.USB_EndPoint2)
    i.USB_Event                              0x000056dc   Section        0  dev.o(i.USB_Event)
    i.USB_Handler_Init                       0x000056ec   Section        0  dev.o(i.USB_Handler_Init)
    i.USB_IRQHandler                         0x00005708   Section        0  usbhw.o(i.USB_IRQHandler)
    i.USB_Init                               0x0000580c   Section        0  usbhw.o(i.USB_Init)
    i.USB_ReadEP                             0x00005898   Section        0  usbhw.o(i.USB_ReadEP)
    i.USB_Receiver_Handler                   0x00005904   Section        0  handlers.o(i.USB_Receiver_Handler)
    i.USB_ReqGetDescriptor                   0x000059b8   Section        0  usbcore.o(i.USB_ReqGetDescriptor)
    USB_ReqGetDescriptor                     0x000059b9   Thumb Code   164  usbcore.o(i.USB_ReqGetDescriptor)
    i.USB_ReqGetStatus                       0x00005a70   Section        0  usbcore.o(i.USB_ReqGetStatus)
    USB_ReqGetStatus                         0x00005a71   Thumb Code   180  usbcore.o(i.USB_ReqGetStatus)
    i.USB_ReqSetClrFeature                   0x00005b44   Section        0  usbcore.o(i.USB_ReqSetClrFeature)
    USB_ReqSetClrFeature                     0x00005b45   Thumb Code   210  usbcore.o(i.USB_ReqSetClrFeature)
    i.USB_ReqSetConfiguration                0x00005c30   Section        0  usbcore.o(i.USB_ReqSetConfiguration)
    USB_ReqSetConfiguration                  0x00005c31   Thumb Code   412  usbcore.o(i.USB_ReqSetConfiguration)
    i.USB_ReqSetInterface                    0x00005df0   Section        0  usbcore.o(i.USB_ReqSetInterface)
    USB_ReqSetInterface                      0x00005df1   Thumb Code   298  usbcore.o(i.USB_ReqSetInterface)
    i.USB_Reset                              0x00005f34   Section        0  usbhw.o(i.USB_Reset)
    i.USB_ResetCore                          0x00005f88   Section        0  usbcore.o(i.USB_ResetCore)
    i.USB_ResetEP                            0x00005fc4   Section        0  usbhw.o(i.USB_ResetEP)
    i.USB_Reset_Event                        0x00005fe4   Section        0  usbuser.o(i.USB_Reset_Event)
    i.USB_Resume                             0x00005fec   Section        0  usbhw.o(i.USB_Resume)
    i.USB_SetAddress                         0x00005ff0   Section        0  usbhw.o(i.USB_SetAddress)
    i.USB_SetStallEP                         0x00006020   Section        0  usbhw.o(i.USB_SetStallEP)
    i.USB_SetupStage                         0x00006044   Section        0  usbcore.o(i.USB_SetupStage)
    i.USB_StatusInStage                      0x00006054   Section        0  usbcore.o(i.USB_StatusInStage)
    i.USB_StatusOutStage                     0x00006064   Section        0  usbcore.o(i.USB_StatusOutStage)
    i.USB_Suspend                            0x00006074   Section        0  usbhw.o(i.USB_Suspend)
    i.USB_Trace                              0x00006078   Section        0  peripheral.o(i.USB_Trace)
    i.USB_Transmit                           0x000060c4   Section        0  peripheral.o(i.USB_Transmit)
    USB_Transmit                             0x000060c5   Thumb Code   104  peripheral.o(i.USB_Transmit)
    i.USB_WakeUpCfg                          0x00006130   Section        0  usbhw.o(i.USB_WakeUpCfg)
    i.USB_WriteEP                            0x00006134   Section        0  usbhw.o(i.USB_WriteEP)
    i.Variables                              0x00006188   Section        0  user.o(i.Variables)
    i.WrCmd                                  0x00006194   Section        0  usbhw.o(i.WrCmd)
    i.WrCmdDat                               0x000061bc   Section        0  usbhw.o(i.WrCmdDat)
    i.WrCmdEP                                0x00006200   Section        0  usbhw.o(i.WrCmdEP)
    i.__ARM_fpclassify                       0x00006258   Section        0  fpclassify.o(i.__ARM_fpclassify)
    i._is_digit                              0x00006280   Section        0  __printf_wp.o(i._is_digit)
    i.check_failed                           0x0000628e   Section        0  lpc17xx_pwm.o(i.check_failed)
    check_failed                             0x0000628f   Thumb Code     4  lpc17xx_pwm.o(i.check_failed)
    i.check_failed                           0x00006292   Section        0  lpc17xx_uart.o(i.check_failed)
    check_failed                             0x00006293   Thumb Code     4  lpc17xx_uart.o(i.check_failed)
    i.main                                   0x00006296   Section        0  main.o(i.main)
    locale$$code                             0x000062a8   Section       44  lc_numeric_c.o(locale$$code)
    locale$$code                             0x000062d4   Section       44  lc_ctype_c.o(locale$$code)
    x$fpl$dretinf                            0x00006300   Section       12  dretinf.o(x$fpl$dretinf)
    x$fpl$f2d                                0x0000630c   Section       86  f2d.o(x$fpl$f2d)
    x$fpl$ffltu                              0x00006364   Section       38  fflt_clz.o(x$fpl$ffltu)
    x$fpl$fnaninf                            0x0000638a   Section      140  fnaninf.o(x$fpl$fnaninf)
    x$fpl$printf1                            0x00006416   Section        4  printf1.o(x$fpl$printf1)
    x$fpl$printf2                            0x0000641a   Section        4  printf2.o(x$fpl$printf2)
    .constdata                               0x0000641e   Section      190  usbdesc.o(.constdata)
    x$fpl$usenofp                            0x0000641e   Section        0  usenofp.o(x$fpl$usenofp)
    .constdata                               0x000064dc   Section       64  usbuser.o(.constdata)
    .constdata                               0x0000651c   Section       40  _printf_hex_int_ll_ptr.o(.constdata)
    uc_hextab                                0x0000651c   Data          20  _printf_hex_int_ll_ptr.o(.constdata)
    lc_hextab                                0x00006530   Data          20  _printf_hex_int_ll_ptr.o(.constdata)
    .constdata                               0x00006544   Section       17  __printf_flags_ss_wp.o(.constdata)
    maptable                                 0x00006544   Data          17  __printf_flags_ss_wp.o(.constdata)
    .constdata                               0x00006558   Section        8  _printf_wctomb.o(.constdata)
    initial_mbstate                          0x00006558   Data           8  _printf_wctomb.o(.constdata)
    .constdata                               0x00006560   Section       38  _printf_fp_hex.o(.constdata)
    lc_hextab                                0x00006560   Data          19  _printf_fp_hex.o(.constdata)
    uc_hextab                                0x00006573   Data          19  _printf_fp_hex.o(.constdata)
    .constdata                               0x00006588   Section      148  bigflt0.o(.constdata)
    tenpwrs_x                                0x00006588   Data          60  bigflt0.o(.constdata)
    tenpwrs_i                                0x000065c4   Data          64  bigflt0.o(.constdata)
    locale$$data                             0x0000663c   Section       28  lc_numeric_c.o(locale$$data)
    __lcnum_c_name                           0x00006640   Data           2  lc_numeric_c.o(locale$$data)
    __lcnum_c_start                          0x00006648   Data           0  lc_numeric_c.o(locale$$data)
    __lcnum_c_point                          0x00006654   Data           0  lc_numeric_c.o(locale$$data)
    __lcnum_c_thousands                      0x00006656   Data           0  lc_numeric_c.o(locale$$data)
    __lcnum_c_grouping                       0x00006657   Data           0  lc_numeric_c.o(locale$$data)
    locale$$data                             0x00006658   Section      272  lc_ctype_c.o(locale$$data)
    __lcnum_c_end                            0x00006658   Data           0  lc_numeric_c.o(locale$$data)
    __lcctype_c_name                         0x0000665c   Data           2  lc_ctype_c.o(locale$$data)
    __lcctype_c_start                        0x00006664   Data           0  lc_ctype_c.o(locale$$data)
    __lcctype_c_end                          0x00006768   Data           0  lc_ctype_c.o(locale$$data)
    .data                                    0x10000000   Section       80  lpc17xx_it.o(.data)
    .data                                    0x10000050   Section        4  peripheral.o(.data)
    .data                                    0x10000054   Section        4  sytemtime.o(.data)
    .data                                    0x10000058   Section       32  handlers.o(.data)
    .data                                    0x10000078   Section       12  cdcuser.o(.data)
    .data                                    0x10000084   Section       48  usbcore.o(.data)
    .data                                    0x100000b4   Section        2  usbuser.o(.data)
    serialState                              0x100000b4   Data           2  usbuser.o(.data)
    .data                                    0x100000b8   Section        6  uart.o(.data)
    .bss                                     0x100000c0   Section     2000  peripheral.o(.bss)
    .bss                                     0x10000890   Section     1124  dev.o(.bss)
    .bss                                     0x10000cf4   Section      212  cdcuser.o(.bss)
    .bss                                     0x10000dc8   Section      272  uart.o(.bss)
    .bss                                     0x10000ed8   Section       96  libspace.o(.bss)
    HEAP                                     0x10000f38   Section        0  startup_lpc17xx.o(HEAP)
    STACK                                    0x10000f38   Section     1024  startup_lpc17xx.o(STACK)
    Heap_Mem                                 0x10000f38   Data           0  startup_lpc17xx.o(HEAP)
    Stack_Mem                                0x10000f38   Data        1024  startup_lpc17xx.o(STACK)
    __initial_sp                             0x10001338   Data           0  startup_lpc17xx.o(STACK)

    Global Symbols

    Symbol Name                              Value     Ov Type        Size  Object(Section)

    BuildAttributes$$THM_ISAv4$P$D$K$B$S$PE$A:L22UL41UL21$X:L11$S22US41US21$IEEE1$IW$USESV6$~STKCKD$USESV7$~SHL$OTIME$ROPI$IEEEJ$EBA8$UX$STANDARDLIB$REQ8$PRES8$EABIv2 0x00000000   Number         0  anon$$obj.o ABSOLUTE
    __ARM_use_no_argv                        0x00000000   Number         0  main.o ABSOLUTE
    _printf_flags                            0x00000000   Number         0  printf_stubs.o ABSOLUTE
    _printf_return_value                     0x00000000   Number         0  printf_stubs.o ABSOLUTE
    _printf_sizespec                         0x00000000   Number         0  printf_stubs.o ABSOLUTE
    _printf_widthprec                        0x00000000   Number         0  printf_stubs.o ABSOLUTE
    __ARM_exceptions_init                     - Undefined Weak Reference
    __alloca_initialize                       - Undefined Weak Reference
    __arm_preinit_                            - Undefined Weak Reference
    __cpp_initialize__aeabi_                  - Undefined Weak Reference
    __cxa_finalize                            - Undefined Weak Reference
    __sigvec_lookup                           - Undefined Weak Reference
    _atexit_init                              - Undefined Weak Reference
    _call_atexit_fns                          - Undefined Weak Reference
    _clock_init                               - Undefined Weak Reference
    _fp_trap_init                             - Undefined Weak Reference
    _fp_trap_shutdown                         - Undefined Weak Reference
    _get_lc_collate                           - Undefined Weak Reference
    _get_lc_monetary                          - Undefined Weak Reference
    _get_lc_time                              - Undefined Weak Reference
    _getenv_init                              - Undefined Weak Reference
    _handle_redirection                       - Undefined Weak Reference
    _init_alloc                               - Undefined Weak Reference
    _init_user_alloc                          - Undefined Weak Reference
    _initio                                   - Undefined Weak Reference
    _printf_mbtowc                            - Undefined Weak Reference
    _printf_wc                                - Undefined Weak Reference
    _rand_init                                - Undefined Weak Reference
    _signal_finish                            - Undefined Weak Reference
    _signal_init                              - Undefined Weak Reference
    _terminate_alloc                          - Undefined Weak Reference
    _terminate_user_alloc                     - Undefined Weak Reference
    _terminateio                              - Undefined Weak Reference
    __Vectors                                0x00002000   Data           4  startup_lpc17xx.o(RESET)
    __main                                   0x000020cd   Thumb Code     8  __main.o(!!!main)
    __scatterload                            0x000020d5   Thumb Code     0  __scatter.o(!!!scatter)
    __scatterload_rt2                        0x000020d5   Thumb Code    44  __scatter.o(!!!scatter)
    __scatterload_rt2_thumb_only             0x000020d5   Thumb Code     0  __scatter.o(!!!scatter)
    __scatterload_null                       0x000020e3   Thumb Code     0  __scatter.o(!!!scatter)
    __scatterload_copy                       0x00002109   Thumb Code    26  __scatter_copy.o(!!handler_copy)
    __scatterload_zeroinit                   0x00002125   Thumb Code    28  __scatter_zi.o(!!handler_zi)
    _printf_n                                0x00002141   Thumb Code     0  _printf_n.o(.ARM.Collect$$_printf_percent$$00000001)
    _printf_percent                          0x00002141   Thumb Code     0  _printf_percent.o(.ARM.Collect$$_printf_percent$$00000000)
    _printf_p                                0x00002147   Thumb Code     0  _printf_p.o(.ARM.Collect$$_printf_percent$$00000002)
    _printf_f                                0x0000214d   Thumb Code     0  _printf_f.o(.ARM.Collect$$_printf_percent$$00000003)
    _printf_e                                0x00002153   Thumb Code     0  _printf_e.o(.ARM.Collect$$_printf_percent$$00000004)
    _printf_g                                0x00002159   Thumb Code     0  _printf_g.o(.ARM.Collect$$_printf_percent$$00000005)
    _printf_a                                0x0000215f   Thumb Code     0  _printf_a.o(.ARM.Collect$$_printf_percent$$00000006)
    _printf_ll                               0x00002165   Thumb Code     0  _printf_ll.o(.ARM.Collect$$_printf_percent$$00000007)
    _printf_i                                0x0000216f   Thumb Code     0  _printf_i.o(.ARM.Collect$$_printf_percent$$00000008)
    _printf_d                                0x00002175   Thumb Code     0  _printf_d.o(.ARM.Collect$$_printf_percent$$00000009)
    _printf_u                                0x0000217b   Thumb Code     0  _printf_u.o(.ARM.Collect$$_printf_percent$$0000000A)
    _printf_o                                0x00002181   Thumb Code     0  _printf_o.o(.ARM.Collect$$_printf_percent$$0000000B)
    _printf_x                                0x00002187   Thumb Code     0  _printf_x.o(.ARM.Collect$$_printf_percent$$0000000C)
    _printf_lli                              0x0000218d   Thumb Code     0  _printf_lli.o(.ARM.Collect$$_printf_percent$$0000000D)
    _printf_lld                              0x00002193   Thumb Code     0  _printf_lld.o(.ARM.Collect$$_printf_percent$$0000000E)
    _printf_llu                              0x00002199   Thumb Code     0  _printf_llu.o(.ARM.Collect$$_printf_percent$$0000000F)
    _printf_llo                              0x0000219f   Thumb Code     0  _printf_llo.o(.ARM.Collect$$_printf_percent$$00000010)
    _printf_llx                              0x000021a5   Thumb Code     0  _printf_llx.o(.ARM.Collect$$_printf_percent$$00000011)
    _printf_l                                0x000021ab   Thumb Code     0  _printf_l.o(.ARM.Collect$$_printf_percent$$00000012)
    _printf_c                                0x000021b5   Thumb Code     0  _printf_c.o(.ARM.Collect$$_printf_percent$$00000013)
    _printf_s                                0x000021bb   Thumb Code     0  _printf_s.o(.ARM.Collect$$_printf_percent$$00000014)
    _printf_lc                               0x000021c1   Thumb Code     0  _printf_lc.o(.ARM.Collect$$_printf_percent$$00000015)
    _printf_ls                               0x000021c7   Thumb Code     0  _printf_ls.o(.ARM.Collect$$_printf_percent$$00000016)
    _printf_percent_end                      0x000021cd   Thumb Code     0  _printf_percent_end.o(.ARM.Collect$$_printf_percent$$00000017)
    __rt_lib_init                            0x000021d1   Thumb Code     0  libinit.o(.ARM.Collect$$libinit$$00000000)
    __rt_lib_init_fp_1                       0x000021d3   Thumb Code     0  libinit2.o(.ARM.Collect$$libinit$$00000002)
    __rt_lib_init_heap_1                     0x000021d3   Thumb Code     0  libinit2.o(.ARM.Collect$$libinit$$0000000A)
    __rt_lib_init_lc_common                  0x000021d3   Thumb Code     0  libinit2.o(.ARM.Collect$$libinit$$0000000F)
    __rt_lib_init_preinit_1                  0x000021d3   Thumb Code     0  libinit2.o(.ARM.Collect$$libinit$$00000004)
    __rt_lib_init_rand_1                     0x000021d3   Thumb Code     0  libinit2.o(.ARM.Collect$$libinit$$0000000E)
    __rt_lib_init_user_alloc_1               0x000021d3   Thumb Code     0  libinit2.o(.ARM.Collect$$libinit$$0000000C)
    __rt_lib_init_lc_collate_1               0x000021d9   Thumb Code     0  libinit2.o(.ARM.Collect$$libinit$$00000011)
    __rt_lib_init_lc_ctype_2                 0x000021d9   Thumb Code     0  libinit2.o(.ARM.Collect$$libinit$$00000012)
    __rt_lib_init_lc_ctype_1                 0x000021e5   Thumb Code     0  libinit2.o(.ARM.Collect$$libinit$$00000013)
    __rt_lib_init_lc_monetary_1              0x000021e5   Thumb Code     0  libinit2.o(.ARM.Collect$$libinit$$00000015)
    __rt_lib_init_lc_numeric_2               0x000021e5   Thumb Code     0  libinit2.o(.ARM.Collect$$libinit$$00000016)
    __rt_lib_init_alloca_1                   0x000021ef   Thumb Code     0  libinit2.o(.ARM.Collect$$libinit$$0000002E)
    __rt_lib_init_argv_1                     0x000021ef   Thumb Code     0  libinit2.o(.ARM.Collect$$libinit$$0000002C)
    __rt_lib_init_atexit_1                   0x000021ef   Thumb Code     0  libinit2.o(.ARM.Collect$$libinit$$0000001B)
    __rt_lib_init_clock_1                    0x000021ef   Thumb Code     0  libinit2.o(.ARM.Collect$$libinit$$00000021)
    __rt_lib_init_cpp_1                      0x000021ef   Thumb Code     0  libinit2.o(.ARM.Collect$$libinit$$00000032)
    __rt_lib_init_exceptions_1               0x000021ef   Thumb Code     0  libinit2.o(.ARM.Collect$$libinit$$00000030)
    __rt_lib_init_fp_trap_1                  0x000021ef   Thumb Code     0  libinit2.o(.ARM.Collect$$libinit$$0000001F)
    __rt_lib_init_getenv_1                   0x000021ef   Thumb Code     0  libinit2.o(.ARM.Collect$$libinit$$00000023)
    __rt_lib_init_lc_numeric_1               0x000021ef   Thumb Code     0  libinit2.o(.ARM.Collect$$libinit$$00000017)
    __rt_lib_init_lc_time_1                  0x000021ef   Thumb Code     0  libinit2.o(.ARM.Collect$$libinit$$00000019)
    __rt_lib_init_return                     0x000021ef   Thumb Code     0  libinit2.o(.ARM.Collect$$libinit$$00000033)
    __rt_lib_init_signal_1                   0x000021ef   Thumb Code     0  libinit2.o(.ARM.Collect$$libinit$$0000001D)
    __rt_lib_init_stdio_1                    0x000021ef   Thumb Code     0  libinit2.o(.ARM.Collect$$libinit$$00000025)
    __rt_lib_shutdown                        0x000021f1   Thumb Code     0  libshutdown.o(.ARM.Collect$$libshutdown$$00000000)
    __rt_lib_shutdown_cpp_1                  0x000021f3   Thumb Code     0  libshutdown2.o(.ARM.Collect$$libshutdown$$00000002)
    __rt_lib_shutdown_fp_trap_1              0x000021f3   Thumb Code     0  libshutdown2.o(.ARM.Collect$$libshutdown$$00000007)
    __rt_lib_shutdown_heap_1                 0x000021f3   Thumb Code     0  libshutdown2.o(.ARM.Collect$$libshutdown$$0000000F)
    __rt_lib_shutdown_return                 0x000021f3   Thumb Code     0  libshutdown2.o(.ARM.Collect$$libshutdown$$00000010)
    __rt_lib_shutdown_signal_1               0x000021f3   Thumb Code     0  libshutdown2.o(.ARM.Collect$$libshutdown$$0000000A)
    __rt_lib_shutdown_stdio_1                0x000021f3   Thumb Code     0  libshutdown2.o(.ARM.Collect$$libshutdown$$00000004)
    __rt_lib_shutdown_user_alloc_1           0x000021f3   Thumb Code     0  libshutdown2.o(.ARM.Collect$$libshutdown$$0000000C)
    __rt_entry                               0x000021f5   Thumb Code     0  __rtentry.o(.ARM.Collect$$rtentry$$00000000)
    __rt_entry_presh_1                       0x000021f5   Thumb Code     0  __rtentry2.o(.ARM.Collect$$rtentry$$00000002)
    __rt_entry_sh                            0x000021f5   Thumb Code     0  __rtentry4.o(.ARM.Collect$$rtentry$$00000004)
    __rt_entry_li                            0x000021fb   Thumb Code     0  __rtentry2.o(.ARM.Collect$$rtentry$$0000000A)
    __rt_entry_postsh_1                      0x000021fb   Thumb Code     0  __rtentry2.o(.ARM.Collect$$rtentry$$00000009)
    __rt_entry_main                          0x000021ff   Thumb Code     0  __rtentry2.o(.ARM.Collect$$rtentry$$0000000D)
    __rt_entry_postli_1                      0x000021ff   Thumb Code     0  __rtentry2.o(.ARM.Collect$$rtentry$$0000000C)
    __rt_exit                                0x00002207   Thumb Code     0  rtexit.o(.ARM.Collect$$rtexit$$00000000)
    __rt_exit_ls                             0x00002209   Thumb Code     0  rtexit2.o(.ARM.Collect$$rtexit$$00000003)
    __rt_exit_prels_1                        0x00002209   Thumb Code     0  rtexit2.o(.ARM.Collect$$rtexit$$00000002)
    __rt_exit_exit                           0x0000220d   Thumb Code     0  rtexit2.o(.ARM.Collect$$rtexit$$00000004)
    delay                                    0x00002215   Thumb Code    14  peripheral.o(.emb_text)
    Reset_Handler                            0x00002225   Thumb Code     8  startup_lpc17xx.o(.text)
    NMI_Handler                              0x0000222d   Thumb Code     2  startup_lpc17xx.o(.text)
    HardFault_Handler                        0x0000222f   Thumb Code     2  startup_lpc17xx.o(.text)
    MemManage_Handler                        0x00002231   Thumb Code     2  startup_lpc17xx.o(.text)
    BusFault_Handler                         0x00002233   Thumb Code     2  startup_lpc17xx.o(.text)
    UsageFault_Handler                       0x00002235   Thumb Code     2  startup_lpc17xx.o(.text)
    SVC_Handler                              0x00002237   Thumb Code     2  startup_lpc17xx.o(.text)
    DebugMon_Handler                         0x00002239   Thumb Code     2  startup_lpc17xx.o(.text)
    PendSV_Handler                           0x0000223b   Thumb Code     2  startup_lpc17xx.o(.text)
    ADC_IRQHandler                           0x0000223f   Thumb Code     0  startup_lpc17xx.o(.text)
    BOD_IRQHandler                           0x0000223f   Thumb Code     0  startup_lpc17xx.o(.text)
    CANActivity_IRQHandler                   0x0000223f   Thumb Code     0  startup_lpc17xx.o(.text)
    CAN_IRQHandler                           0x0000223f   Thumb Code     0  startup_lpc17xx.o(.text)
    DMA_IRQHandler                           0x0000223f   Thumb Code     0  startup_lpc17xx.o(.text)
    EINT0_IRQHandler                         0x0000223f   Thumb Code     0  startup_lpc17xx.o(.text)
    EINT1_IRQHandler                         0x0000223f   Thumb Code     0  startup_lpc17xx.o(.text)
    EINT2_IRQHandler                         0x0000223f   Thumb Code     0  startup_lpc17xx.o(.text)
    ENET_IRQHandler                          0x0000223f   Thumb Code     0  startup_lpc17xx.o(.text)
    I2C0_IRQHandler                          0x0000223f   Thumb Code     0  startup_lpc17xx.o(.text)
    I2C1_IRQHandler                          0x0000223f   Thumb Code     0  startup_lpc17xx.o(.text)
    I2C2_IRQHandler                          0x0000223f   Thumb Code     0  startup_lpc17xx.o(.text)
    I2S_IRQHandler                           0x0000223f   Thumb Code     0  startup_lpc17xx.o(.text)
    MCPWM_IRQHandler                         0x0000223f   Thumb Code     0  startup_lpc17xx.o(.text)
    PLL0_IRQHandler                          0x0000223f   Thumb Code     0  startup_lpc17xx.o(.text)
    PLL1_IRQHandler                          0x0000223f   Thumb Code     0  startup_lpc17xx.o(.text)
    QEI_IRQHandler                           0x0000223f   Thumb Code     0  startup_lpc17xx.o(.text)
    RIT_IRQHandler                           0x0000223f   Thumb Code     0  startup_lpc17xx.o(.text)
    RTC_IRQHandler                           0x0000223f   Thumb Code     0  startup_lpc17xx.o(.text)
    SPI_IRQHandler                           0x0000223f   Thumb Code     0  startup_lpc17xx.o(.text)
    SSP0_IRQHandler                          0x0000223f   Thumb Code     0  startup_lpc17xx.o(.text)
    SSP1_IRQHandler                          0x0000223f   Thumb Code     0  startup_lpc17xx.o(.text)
    TIMER1_IRQHandler                        0x0000223f   Thumb Code     0  startup_lpc17xx.o(.text)
    TIMER2_IRQHandler                        0x0000223f   Thumb Code     0  startup_lpc17xx.o(.text)
    TIMER3_IRQHandler                        0x0000223f   Thumb Code     0  startup_lpc17xx.o(.text)
    UART2_IRQHandler                         0x0000223f   Thumb Code     0  startup_lpc17xx.o(.text)
    UART3_IRQHandler                         0x0000223f   Thumb Code     0  startup_lpc17xx.o(.text)
    USBActivity_IRQHandler                   0x0000223f   Thumb Code     0  startup_lpc17xx.o(.text)
    WDT_IRQHandler                           0x0000223f   Thumb Code     0  startup_lpc17xx.o(.text)
    __user_initial_stackheap                 0x00002241   Thumb Code     0  startup_lpc17xx.o(.text)
    vsnprintf                                0x00002261   Thumb Code    48  vsnprintf.o(.text)
    _printf_pre_padding                      0x00002295   Thumb Code    44  _printf_pad.o(.text)
    _printf_post_padding                     0x000022c1   Thumb Code    34  _printf_pad.o(.text)
    _printf_int_dec                          0x000022e5   Thumb Code   104  _printf_dec.o(.text)
    _printf_longlong_hex                     0x0000235d   Thumb Code    86  _printf_hex_int_ll_ptr.o(.text)
    _printf_int_hex                          0x000023b3   Thumb Code    28  _printf_hex_int_ll_ptr.o(.text)
    _printf_ll_hex                           0x000023cf   Thumb Code    12  _printf_hex_int_ll_ptr.o(.text)
    _printf_hex_ptr                          0x000023db   Thumb Code    18  _printf_hex_int_ll_ptr.o(.text)
    __printf                                 0x000023f1   Thumb Code   388  __printf_flags_ss_wp.o(.text)
    atoi                                     0x00002579   Thumb Code    26  atoi.o(.text)
    strstr                                   0x00002593   Thumb Code    36  strstr.o(.text)
    strlen                                   0x000025b7   Thumb Code    62  strlen.o(.text)
    strcat                                   0x000025f5   Thumb Code    24  strcat.o(.text)
    __aeabi_memclr                           0x0000260d   Thumb Code     0  rt_memclr.o(.text)
    __rt_memclr                              0x0000260d   Thumb Code    68  rt_memclr.o(.text)
    _memset                                  0x00002611   Thumb Code     0  rt_memclr.o(.text)
    __aeabi_memclr4                          0x00002651   Thumb Code     0  rt_memclr_w.o(.text)
    __aeabi_memclr8                          0x00002651   Thumb Code     0  rt_memclr_w.o(.text)
    __rt_memclr_w                            0x00002651   Thumb Code    78  rt_memclr_w.o(.text)
    _memset_w                                0x00002655   Thumb Code     0  rt_memclr_w.o(.text)
    strcmp                                   0x000026a1   Thumb Code   128  strcmpv7m.o(.text)
    __use_two_region_memory                  0x00002721   Thumb Code     2  heapauxi.o(.text)
    __rt_heap_escrow$2region                 0x00002723   Thumb Code     2  heapauxi.o(.text)
    __rt_heap_expand$2region                 0x00002725   Thumb Code     2  heapauxi.o(.text)
    __aeabi_errno_addr                       0x00002729   Thumb Code     8  rt_errno_addr_intlibspace.o(.text)
    __errno$intlibspace                      0x00002729   Thumb Code     0  rt_errno_addr_intlibspace.o(.text)
    __rt_errno_addr$intlibspace              0x00002729   Thumb Code     0  rt_errno_addr_intlibspace.o(.text)
    _printf_truncate_signed                  0x00002731   Thumb Code    18  _printf_truncate.o(.text)
    _printf_truncate_unsigned                0x00002743   Thumb Code    18  _printf_truncate.o(.text)
    _printf_str                              0x00002755   Thumb Code    82  _printf_str.o(.text)
    _printf_int_common                       0x000027a7   Thumb Code   178  _printf_intcommon.o(.text)
    _printf_charcount                        0x00002859   Thumb Code    40  _printf_charcount.o(.text)
    __lib_sel_fp_printf                      0x00002881   Thumb Code     2  _printf_fp_dec.o(.text)
    _printf_fp_dec_real                      0x00002a33   Thumb Code   620  _printf_fp_dec.o(.text)
    _printf_char_common                      0x00002cab   Thumb Code    32  _printf_char_common.o(.text)
    _sputc                                   0x00002cd1   Thumb Code    10  _sputc.o(.text)
    _snputc                                  0x00002cdb   Thumb Code    16  _snputc.o(.text)
    _printf_wctomb                           0x00002ced   Thumb Code   182  _printf_wctomb.o(.text)
    _printf_longlong_dec                     0x00002da9   Thumb Code   108  _printf_longlong_dec.o(.text)
    _printf_longlong_oct                     0x00002e25   Thumb Code    66  _printf_oct_int_ll.o(.text)
    _printf_int_oct                          0x00002e67   Thumb Code    24  _printf_oct_int_ll.o(.text)
    _printf_ll_oct                           0x00002e7f   Thumb Code    12  _printf_oct_int_ll.o(.text)
    strtol                                   0x00002e95   Thumb Code   112  strtol.o(.text)
    __user_libspace                          0x00002f05   Thumb Code     8  libspace.o(.text)
    __user_perproc_libspace                  0x00002f05   Thumb Code     0  libspace.o(.text)
    __user_perthread_libspace                0x00002f05   Thumb Code     0  libspace.o(.text)
    __rt_ctype_table                         0x00002f0d   Thumb Code    16  rt_ctype_table.o(.text)
    __rt_locale                              0x00002f1d   Thumb Code     8  rt_locale_intlibspace.o(.text)
    _ll_udiv10                               0x00002f25   Thumb Code   138  lludiv10.o(.text)
    _printf_fp_hex_real                      0x00002fb1   Thumb Code   756  _printf_fp_hex.o(.text)
    _printf_fp_infnan                        0x000032ad   Thumb Code   112  _printf_fp_infnan.o(.text)
    _printf_cs_common                        0x0000332d   Thumb Code    20  _printf_char.o(.text)
    _printf_char                             0x00003341   Thumb Code    16  _printf_char.o(.text)
    _printf_string                           0x00003351   Thumb Code     8  _printf_char.o(.text)
    _printf_lcs_common                       0x00003359   Thumb Code    20  _printf_wchar.o(.text)
    _printf_wchar                            0x0000336d   Thumb Code    16  _printf_wchar.o(.text)
    _printf_wstring                          0x0000337d   Thumb Code     8  _printf_wchar.o(.text)
    _strtoul                                 0x00003385   Thumb Code   158  _strtoul.o(.text)
    _btod_etento                             0x00003425   Thumb Code   224  bigflt0.o(.text)
    _wcrtomb                                 0x00003509   Thumb Code    64  _wcrtomb.o(.text)
    __user_setup_stackheap                   0x00003549   Thumb Code    74  sys_stackheap_outer.o(.text)
    _chval                                   0x00003593   Thumb Code    28  _chval.o(.text)
    exit                                     0x000035af   Thumb Code    18  exit.o(.text)
    _sys_exit                                0x000035c1   Thumb Code     8  sys_exit.o(.text)
    __I$use$semihosting                      0x000035cd   Thumb Code     0  use_no_semi.o(.text)
    __use_no_semihosting_swi                 0x000035cd   Thumb Code     2  use_no_semi.o(.text)
    __semihosting_library_function           0x000035cf   Thumb Code     0  indicate_semi.o(.text)
    _btod_d2e                                0x000035cf   Thumb Code    62  btod.o(CL$$btod_d2e)
    _d2e_denorm_low                          0x0000360d   Thumb Code    70  btod.o(CL$$btod_d2e_denorm_low)
    _d2e_norm_op1                            0x00003653   Thumb Code    96  btod.o(CL$$btod_d2e_norm_op1)
    __btod_div_common                        0x000036b3   Thumb Code   696  btod.o(CL$$btod_div_common)
    _e2e                                     0x000039eb   Thumb Code   220  btod.o(CL$$btod_e2e)
    _btod_ediv                               0x00003ac7   Thumb Code    42  btod.o(CL$$btod_ediv)
    _btod_emul                               0x00003af1   Thumb Code    42  btod.o(CL$$btod_emul)
    __btod_mult_common                       0x00003b1b   Thumb Code   580  btod.o(CL$$btod_mult_common)
    Button_Events                            0x00003d5f   Thumb Code    22  button.o(i.Button_Events)
    Button_Fsm                               0x00003d75   Thumb Code    68  button.o(i.Button_Fsm)
    Button_Handler                           0x00003db9   Thumb Code   128  handlers.o(i.Button_Handler)
    Button_Init                              0x00003e51   Thumb Code    22  button.o(i.Button_Init)
    CDC_BulkIn                               0x00003e69   Thumb Code     8  cdcuser.o(i.CDC_BulkIn)
    CDC_BulkOut                              0x00003e75   Thumb Code    22  cdcuser.o(i.CDC_BulkOut)
    CDC_ClearCommFeature                     0x00003e91   Thumb Code     6  cdcuser.o(i.CDC_ClearCommFeature)
    CDC_GetCommFeature                       0x00003e97   Thumb Code     6  cdcuser.o(i.CDC_GetCommFeature)
    CDC_GetEncapsulatedResponse              0x00003e9d   Thumb Code     4  cdcuser.o(i.CDC_GetEncapsulatedResponse)
    CDC_GetLineCoding                        0x00003ea1   Thumb Code    54  cdcuser.o(i.CDC_GetLineCoding)
    CDC_GetSerialState                       0x00003ee1   Thumb Code   136  cdcuser.o(i.CDC_GetSerialState)
    CDC_NotificationIn                       0x00003f6d   Thumb Code    54  cdcuser.o(i.CDC_NotificationIn)
    CDC_SendBreak                            0x00003fad   Thumb Code     6  cdcuser.o(i.CDC_SendBreak)
    CDC_SendEncapsulatedCommand              0x00003fb3   Thumb Code     4  cdcuser.o(i.CDC_SendEncapsulatedCommand)
    CDC_SetCommFeature                       0x00003fb7   Thumb Code     6  cdcuser.o(i.CDC_SetCommFeature)
    CDC_SetControlLineState                  0x00003fbd   Thumb Code     6  cdcuser.o(i.CDC_SetControlLineState)
    CDC_SetLineCoding                        0x00003fc3   Thumb Code     4  cdcuser.o(i.CDC_SetLineCoding)
    CDC_WrOutBuf                             0x00003fc9   Thumb Code    22  cdcuser.o(i.CDC_WrOutBuf)
    CLKPWR_ConfigPPWR                        0x00003fe5   Thumb Code    46  lpc17xx_clkpwr.o(i.CLKPWR_ConfigPPWR)
    CLKPWR_SetPCLKDiv                        0x0000401d   Thumb Code    94  lpc17xx_clkpwr.o(i.CLKPWR_SetPCLKDiv)
    Config                                   0x00004085   Thumb Code     8  user.o(i.Config)
    EINT3_IRQHandler                         0x0000408d   Thumb Code    38  lpc17xx_it.o(i.EINT3_IRQHandler)
    EPAdr                                    0x000040b9   Thumb Code    16  usbhw.o(i.EPAdr)
    EXTI_ClearEXTIFlag                       0x000040c9   Thumb Code    10  lpc17xx_exti.o(i.EXTI_ClearEXTIFlag)
    Fifo_Init                                0x000040d9   Thumb Code    46  fifo.o(i.Fifo_Init)
    Fifo_OnInactive                          0x00004107   Thumb Code    22  fifo.o(i.Fifo_OnInactive)
    Fifo_Read                                0x0000411d   Thumb Code    84  fifo.o(i.Fifo_Read)
    Fifo_Write                               0x00004171   Thumb Code   122  fifo.o(i.Fifo_Write)
    GPIO_Init                                0x000041ed   Thumb Code   250  lpc17xx_gpio.o(i.GPIO_Init)
    IO_Config                                0x000042ed   Thumb Code   140  peripheral.o(i.IO_Config)
    IO_Events                                0x00004385   Thumb Code    56  dev.o(i.IO_Events)
    IO_Init                                  0x000043c9   Thumb Code    26  dev.o(i.IO_Init)
    Loop                                     0x000043f1   Thumb Code    12  user.o(i.Loop)
    NVIC_Config                              0x000043fd   Thumb Code    30  peripheral.o(i.NVIC_Config)
    NVIC_Init                                0x00004425   Thumb Code   114  lpc17xx_nvic.o(i.NVIC_Init)
    PWM1_IRQHandler                          0x000044a5   Thumb Code   114  lpc17xx_it.o(i.PWM1_IRQHandler)
    PWM_ChannelCmd                           0x00004521   Thumb Code   116  lpc17xx_pwm.o(i.PWM_ChannelCmd)
    PWM_ChannelConfig                        0x000045bd   Thumb Code   120  lpc17xx_pwm.o(i.PWM_ChannelConfig)
    PWM_ClearIntPending                      0x0000465d   Thumb Code    78  lpc17xx_pwm.o(i.PWM_ClearIntPending)
    PWM_Cmd                                  0x000046d5   Thumb Code    62  lpc17xx_pwm.o(i.PWM_Cmd)
    PWM_Config                               0x0000473d   Thumb Code   302  peripheral.o(i.PWM_Config)
    PWM_ConfigMatch                          0x0000487d   Thumb Code   280  lpc17xx_pwm.o(i.PWM_ConfigMatch)
    PWM_CounterCmd                           0x000049c1   Thumb Code    62  lpc17xx_pwm.o(i.PWM_CounterCmd)
    PWM_GetIntStatus                         0x00004a29   Thumb Code    88  lpc17xx_pwm.o(i.PWM_GetIntStatus)
    PWM_Init                                 0x00004aa9   Thumb Code   150  lpc17xx_pwm.o(i.PWM_Init)
    PWM_MatchUpdate                          0x00004b69   Thumb Code   150  lpc17xx_pwm.o(i.PWM_MatchUpdate)
    PWM_ResetCounter                         0x00004c29   Thumb Code    40  lpc17xx_pwm.o(i.PWM_ResetCounter)
    Peripheral                               0x00004c79   Thumb Code    24  peripheral.o(i.Peripheral)
    RdCmdDat                                 0x00004c91   Thumb Code    38  usbhw.o(i.RdCmdDat)
    Serial_Events                            0x00004cc1   Thumb Code    58  serial.o(i.Serial_Events)
    SysTick_Handler                          0x00004cfd   Thumb Code    24  lpc17xx_it.o(i.SysTick_Handler)
    SystemInit                               0x00004d19   Thumb Code   302  system_lpc17xx.o(i.SystemInit)
    SystemTime_GetTime                       0x00004e59   Thumb Code     6  sytemtime.o(i.SystemTime_GetTime)
    SystemTime_Timer                         0x00004e65   Thumb Code    12  sytemtime.o(i.SystemTime_Timer)
    Systick_Config                           0x00004e75   Thumb Code    80  peripheral.o(i.Systick_Config)
    TIMER0_IRQHandler                        0x00004ed1   Thumb Code    26  lpc17xx_it.o(i.TIMER0_IRQHandler)
    TIM_ClearIntPending                      0x00004eeb   Thumb Code     8  lpc17xx_timer.o(i.TIM_ClearIntPending)
    TIM_GetIntStatus                         0x00004ef3   Thumb Code    16  lpc17xx_timer.o(i.TIM_GetIntStatus)
    Timer_Elapsed                            0x00004f03   Thumb Code    38  timer.o(i.Timer_Elapsed)
    Timer_GetTime                            0x00004f29   Thumb Code    52  timer.o(i.Timer_GetTime)
    Timer_Init                               0x00004f5d   Thumb Code    10  timer.o(i.Timer_Init)
    Timer_Start                              0x00004f67   Thumb Code    16  timer.o(i.Timer_Start)
    Timer_Stop                               0x00004f77   Thumb Code     6  timer.o(i.Timer_Stop)
    UART0_IRQHandler                         0x00004f7d   Thumb Code    38  lpc17xx_it.o(i.UART0_IRQHandler)
    UART1_IRQHandler                         0x00004fa9   Thumb Code   164  uart.o(i.UART1_IRQHandler)
    UART_GetIntId                            0x00005061   Thumb Code    50  lpc17xx_uart.o(i.UART_GetIntId)
    UART_GetLineStatus                       0x000050c9   Thumb Code    54  lpc17xx_uart.o(i.UART_GetLineStatus)
    USB_ClrStallEP                           0x00005135   Thumb Code    26  usbhw.o(i.USB_ClrStallEP)
    USB_Config                               0x00005155   Thumb Code    60  peripheral.o(i.USB_Config)
    USB_ConfigEP                             0x00005195   Thumb Code    68  usbhw.o(i.USB_ConfigEP)
    USB_Configure                            0x000051e1   Thumb Code    60  usbhw.o(i.USB_Configure)
    USB_Configure_Event                      0x00005225   Thumb Code     2  usbuser.o(i.USB_Configure_Event)
    USB_Connect                              0x00005229   Thumb Code    28  usbhw.o(i.USB_Connect)
    USB_DataInStage                          0x00005249   Thumb Code    52  usbcore.o(i.USB_DataInStage)
    USB_DataOutStage                         0x00005281   Thumb Code    34  usbcore.o(i.USB_DataOutStage)
    USB_DirCtrlEP                            0x000052a9   Thumb Code     2  usbhw.o(i.USB_DirCtrlEP)
    USB_DisableEP                            0x000052ad   Thumb Code    26  usbhw.o(i.USB_DisableEP)
    USB_Disconnect                           0x000052d1   Thumb Code    52  peripheral.o(i.USB_Disconnect)
    USB_EnableEP                             0x00005309   Thumb Code    26  usbhw.o(i.USB_EnableEP)
    USB_EndPoint0                            0x00005329   Thumb Code   846  usbcore.o(i.USB_EndPoint0)
    USB_EndPoint1                            0x00005695   Thumb Code    36  usbuser.o(i.USB_EndPoint1)
    USB_EndPoint2                            0x000056bd   Thumb Code    30  usbuser.o(i.USB_EndPoint2)
    USB_Event                                0x000056dd   Thumb Code    10  dev.o(i.USB_Event)
    USB_Handler_Init                         0x000056ed   Thumb Code    20  dev.o(i.USB_Handler_Init)
    USB_IRQHandler                           0x00005709   Thumb Code   244  usbhw.o(i.USB_IRQHandler)
    USB_Init                                 0x0000580d   Thumb Code   118  usbhw.o(i.USB_Init)
    USB_ReadEP                               0x00005899   Thumb Code    94  usbhw.o(i.USB_ReadEP)
    USB_Receiver_Handler                     0x00005905   Thumb Code   128  handlers.o(i.USB_Receiver_Handler)
    USB_Reset                                0x00005f35   Thumb Code    76  usbhw.o(i.USB_Reset)
    USB_ResetCore                            0x00005f89   Thumb Code    34  usbcore.o(i.USB_ResetCore)
    USB_ResetEP                              0x00005fc5   Thumb Code    26  usbhw.o(i.USB_ResetEP)
    USB_Reset_Event                          0x00005fe5   Thumb Code     8  usbuser.o(i.USB_Reset_Event)
    USB_Resume                               0x00005fed   Thumb Code     2  usbhw.o(i.USB_Resume)
    USB_SetAddress                           0x00005ff1   Thumb Code    42  usbhw.o(i.USB_SetAddress)
    USB_SetStallEP                           0x00006021   Thumb Code    26  usbhw.o(i.USB_SetStallEP)
    USB_SetupStage                           0x00006045   Thumb Code    12  usbcore.o(i.USB_SetupStage)
    USB_StatusInStage                        0x00006055   Thumb Code    14  usbcore.o(i.USB_StatusInStage)
    USB_StatusOutStage                       0x00006065   Thumb Code    12  usbcore.o(i.USB_StatusOutStage)
    USB_Suspend                              0x00006075   Thumb Code     2  usbhw.o(i.USB_Suspend)
    USB_Trace                                0x00006079   Thumb Code    66  peripheral.o(i.USB_Trace)
    USB_WakeUpCfg                            0x00006131   Thumb Code     2  usbhw.o(i.USB_WakeUpCfg)
    USB_WriteEP                              0x00006135   Thumb Code    70  usbhw.o(i.USB_WriteEP)
    Variables                                0x00006189   Thumb Code    12  user.o(i.Variables)
    WrCmd                                    0x00006195   Thumb Code    30  usbhw.o(i.WrCmd)
    WrCmdDat                                 0x000061bd   Thumb Code    58  usbhw.o(i.WrCmdDat)
    WrCmdEP                                  0x00006201   Thumb Code    78  usbhw.o(i.WrCmdEP)
    __ARM_fpclassify                         0x00006259   Thumb Code    40  fpclassify.o(i.__ARM_fpclassify)
    _is_digit                                0x00006281   Thumb Code    14  __printf_wp.o(i._is_digit)
    main                                     0x00006297   Thumb Code    16  main.o(i.main)
    _get_lc_numeric                          0x000062a9   Thumb Code    44  lc_numeric_c.o(locale$$code)
    _get_lc_ctype                            0x000062d5   Thumb Code    44  lc_ctype_c.o(locale$$code)
    __fpl_dretinf                            0x00006301   Thumb Code    12  dretinf.o(x$fpl$dretinf)
    __aeabi_f2d                              0x0000630d   Thumb Code     0  f2d.o(x$fpl$f2d)
    _f2d                                     0x0000630d   Thumb Code    86  f2d.o(x$fpl$f2d)
    __aeabi_ui2f                             0x00006365   Thumb Code     0  fflt_clz.o(x$fpl$ffltu)
    _ffltu                                   0x00006365   Thumb Code    38  fflt_clz.o(x$fpl$ffltu)
    __fpl_fnaninf                            0x0000638b   Thumb Code   140  fnaninf.o(x$fpl$fnaninf)
    _printf_fp_dec                           0x00006417   Thumb Code     4  printf1.o(x$fpl$printf1)
    _printf_fp_hex                           0x0000641b   Thumb Code     4  printf2.o(x$fpl$printf2)
    USB_DeviceDescriptor                     0x0000641e   Data          18  usbdesc.o(.constdata)
    __I$use$fp                               0x0000641e   Number         0  usenofp.o(x$fpl$usenofp)
    USB_ConfigDescriptor                     0x00006430   Data          68  usbdesc.o(.constdata)
    USB_StringDescriptor                     0x00006474   Data         104  usbdesc.o(.constdata)
    USB_P_EP                                 0x000064dc   Data          64  usbuser.o(.constdata)
    Region$$Table$$Base                      0x0000661c   Number         0  anon$$obj.o(Region$$Table)
    Region$$Table$$Limit                     0x0000663c   Number         0  anon$$obj.o(Region$$Table)
    __ctype                                  0x00006665   Data           0  lc_ctype_c.o(locale$$data)
    c                                        0x10000000   Data          40  lpc17xx_it.o(.data)
    cx                                       0x10000028   Data          10  lpc17xx_it.o(.data)
    cy                                       0x10000032   Data          10  lpc17xx_it.o(.data)
    cz                                       0x1000003c   Data          10  lpc17xx_it.o(.data)
    MR0                                      0x10000048   Data           4  lpc17xx_it.o(.data)
    i                                        0x1000004c   Data           4  lpc17xx_it.o(.data)
    DelayC                                   0x10000050   Data           4  peripheral.o(.data)
    st                                       0x10000054   Data           4  sytemtime.o(.data)
    p                                        0x10000058   Data           4  handlers.o(.data)
    msg                                      0x1000005c   Data          16  handlers.o(.data)
    x                                        0x1000006c   Data           4  handlers.o(.data)
    y                                        0x10000070   Data           4  handlers.o(.data)
    a                                        0x10000074   Data           4  handlers.o(.data)
    All_Packets_Sent                         0x10000078   Data           1  cdcuser.o(.data)
    CDC_LineCoding                           0x10000079   Data           7  cdcuser.o(.data)
    CDC_SerialState                          0x10000080   Data           2  cdcuser.o(.data)
    CDC_DepInEmpty                           0x10000082   Data           2  cdcuser.o(.data)
    USB_DeviceStatus                         0x10000084   Data           2  usbcore.o(.data)
    USB_DeviceAddress                        0x10000086   Data           1  usbcore.o(.data)
    USB_Configuration                        0x10000087   Data           1  usbcore.o(.data)
    USB_EndPointMask                         0x10000088   Data           4  usbcore.o(.data)
    USB_EndPointHalt                         0x1000008c   Data           4  usbcore.o(.data)
    USB_EndPointStall                        0x10000090   Data           4  usbcore.o(.data)
    USB_NumInterfaces                        0x10000094   Data           1  usbcore.o(.data)
    USB_AltSetting                           0x10000095   Data           4  usbcore.o(.data)
    EP0Buf                                   0x10000099   Data           8  usbcore.o(.data)
    EP0Data                                  0x100000a4   Data           8  usbcore.o(.data)
    SetupPacket                              0x100000ac   Data           8  usbcore.o(.data)
    ser_txRestart                            0x100000b8   Data           4  uart.o(.data)
    ser_lineState                            0x100000bc   Data           2  uart.o(.data)
    UART_Buffer                              0x100000c0   Data        1000  peripheral.o(.bss)
    USB_Buffer                               0x100004a8   Data        1000  peripheral.o(.bss)
    Usb                                      0x10000890   Data        1080  dev.o(.bss)
    button                                   0x10000cc8   Data          20  dev.o(.bss)
    Led_Tmr                                  0x10000cdc   Data          12  dev.o(.bss)
    Adc_Tmr                                  0x10000ce8   Data          12  dev.o(.bss)
    BulkBufIn                                0x10000cf4   Data          64  cdcuser.o(.bss)
    BulkBufOut                               0x10000d34   Data          64  cdcuser.o(.bss)
    NotificationBuf                          0x10000d74   Data          10  cdcuser.o(.bss)
    CDC_OutBuf                               0x10000d80   Data          72  cdcuser.o(.bss)
    ser_out                                  0x10000dc8   Data         136  uart.o(.bss)
    ser_in                                   0x10000e50   Data         136  uart.o(.bss)
    __libspace_start                         0x10000ed8   Data          96  libspace.o(.bss)
    __temporary_stack_top$libspace           0x10000f38   Data           0  libspace.o(.bss)



==============================================================================

Memory Map of the image

  Image Entry point : 0x000020cd

  Load Region LR_IROM1 (Base: 0x00002000, Size: 0x00004828, Max: 0x0007e000, ABSOLUTE)

    Execution Region ER_IROM1 (Exec base: 0x00002000, Load base: 0x00002000, Size: 0x00004768, Max: 0x0007e000, ABSOLUTE)

    Exec Addr    Load Addr    Size         Type   Attr      Idx    E Section Name        Object

    0x00002000   0x00002000   0x000000cc   Data   RO            3    RESET               startup_lpc17xx.o
    0x000020cc   0x000020cc   0x00000008   Code   RO         3939  * !!!main             c_w.l(__main.o)
    0x000020d4   0x000020d4   0x00000034   Code   RO         4248    !!!scatter          c_w.l(__scatter.o)
    0x00002108   0x00002108   0x0000001a   Code   RO         4250    !!handler_copy      c_w.l(__scatter_copy.o)
    0x00002122   0x00002122   0x00000002   PAD
    0x00002124   0x00002124   0x0000001c   Code   RO         4252    !!handler_zi        c_w.l(__scatter_zi.o)
    0x00002140   0x00002140   0x00000000   Code   RO         3915    .ARM.Collect$$_printf_percent$$00000000  c_w.l(_printf_percent.o)
    0x00002140   0x00002140   0x00000006   Code   RO         3990    .ARM.Collect$$_printf_percent$$00000001  c_w.l(_printf_n.o)
    0x00002146   0x00002146   0x00000006   Code   RO         3991    .ARM.Collect$$_printf_percent$$00000002  c_w.l(_printf_p.o)
    0x0000214c   0x0000214c   0x00000006   Code   RO         3914    .ARM.Collect$$_printf_percent$$00000003  c_w.l(_printf_f.o)
    0x00002152   0x00002152   0x00000006   Code   RO         3995    .ARM.Collect$$_printf_percent$$00000004  c_w.l(_printf_e.o)
    0x00002158   0x00002158   0x00000006   Code   RO         3996    .ARM.Collect$$_printf_percent$$00000005  c_w.l(_printf_g.o)
    0x0000215e   0x0000215e   0x00000006   Code   RO         3997    .ARM.Collect$$_printf_percent$$00000006  c_w.l(_printf_a.o)
    0x00002164   0x00002164   0x0000000a   Code   RO         4002    .ARM.Collect$$_printf_percent$$00000007  c_w.l(_printf_ll.o)
    0x0000216e   0x0000216e   0x00000006   Code   RO         3993    .ARM.Collect$$_printf_percent$$00000008  c_w.l(_printf_i.o)
    0x00002174   0x00002174   0x00000006   Code   RO         3913    .ARM.Collect$$_printf_percent$$00000009  c_w.l(_printf_d.o)
    0x0000217a   0x0000217a   0x00000006   Code   RO         3994    .ARM.Collect$$_printf_percent$$0000000A  c_w.l(_printf_u.o)
    0x00002180   0x00002180   0x00000006   Code   RO         3992    .ARM.Collect$$_printf_percent$$0000000B  c_w.l(_printf_o.o)
    0x00002186   0x00002186   0x00000006   Code   RO         3912    .ARM.Collect$$_printf_percent$$0000000C  c_w.l(_printf_x.o)
    0x0000218c   0x0000218c   0x00000006   Code   RO         3999    .ARM.Collect$$_printf_percent$$0000000D  c_w.l(_printf_lli.o)
    0x00002192   0x00002192   0x00000006   Code   RO         4000    .ARM.Collect$$_printf_percent$$0000000E  c_w.l(_printf_lld.o)
    0x00002198   0x00002198   0x00000006   Code   RO         4001    .ARM.Collect$$_printf_percent$$0000000F  c_w.l(_printf_llu.o)
    0x0000219e   0x0000219e   0x00000006   Code   RO         4006    .ARM.Collect$$_printf_percent$$00000010  c_w.l(_printf_llo.o)
    0x000021a4   0x000021a4   0x00000006   Code   RO         4007    .ARM.Collect$$_printf_percent$$00000011  c_w.l(_printf_llx.o)
    0x000021aa   0x000021aa   0x0000000a   Code   RO         4003    .ARM.Collect$$_printf_percent$$00000012  c_w.l(_printf_l.o)
    0x000021b4   0x000021b4   0x00000006   Code   RO         3988    .ARM.Collect$$_printf_percent$$00000013  c_w.l(_printf_c.o)
    0x000021ba   0x000021ba   0x00000006   Code   RO         3989    .ARM.Collect$$_printf_percent$$00000014  c_w.l(_printf_s.o)
    0x000021c0   0x000021c0   0x00000006   Code   RO         4004    .ARM.Collect$$_printf_percent$$00000015  c_w.l(_printf_lc.o)
    0x000021c6   0x000021c6   0x00000006   Code   RO         4005    .ARM.Collect$$_printf_percent$$00000016  c_w.l(_printf_ls.o)
    0x000021cc   0x000021cc   0x00000004   Code   RO         3998    .ARM.Collect$$_printf_percent$$00000017  c_w.l(_printf_percent_end.o)
    0x000021d0   0x000021d0   0x00000002   Code   RO         4121    .ARM.Collect$$libinit$$00000000  c_w.l(libinit.o)
    0x000021d2   0x000021d2   0x00000000   Code   RO         4123    .ARM.Collect$$libinit$$00000002  c_w.l(libinit2.o)
    0x000021d2   0x000021d2   0x00000000   Code   RO         4125    .ARM.Collect$$libinit$$00000004  c_w.l(libinit2.o)
    0x000021d2   0x000021d2   0x00000000   Code   RO         4128    .ARM.Collect$$libinit$$0000000A  c_w.l(libinit2.o)
    0x000021d2   0x000021d2   0x00000000   Code   RO         4130    .ARM.Collect$$libinit$$0000000C  c_w.l(libinit2.o)
    0x000021d2   0x000021d2   0x00000000   Code   RO         4132    .ARM.Collect$$libinit$$0000000E  c_w.l(libinit2.o)
    0x000021d2   0x000021d2   0x00000006   Code   RO         4133    .ARM.Collect$$libinit$$0000000F  c_w.l(libinit2.o)
    0x000021d8   0x000021d8   0x00000000   Code   RO         4135    .ARM.Collect$$libinit$$00000011  c_w.l(libinit2.o)
    0x000021d8   0x000021d8   0x0000000c   Code   RO         4136    .ARM.Collect$$libinit$$00000012  c_w.l(libinit2.o)
    0x000021e4   0x000021e4   0x00000000   Code   RO         4137    .ARM.Collect$$libinit$$00000013  c_w.l(libinit2.o)
    0x000021e4   0x000021e4   0x00000000   Code   RO         4139    .ARM.Collect$$libinit$$00000015  c_w.l(libinit2.o)
    0x000021e4   0x000021e4   0x0000000a   Code   RO         4140    .ARM.Collect$$libinit$$00000016  c_w.l(libinit2.o)
    0x000021ee   0x000021ee   0x00000000   Code   RO         4141    .ARM.Collect$$libinit$$00000017  c_w.l(libinit2.o)
    0x000021ee   0x000021ee   0x00000000   Code   RO         4143    .ARM.Collect$$libinit$$00000019  c_w.l(libinit2.o)
    0x000021ee   0x000021ee   0x00000000   Code   RO         4145    .ARM.Collect$$libinit$$0000001B  c_w.l(libinit2.o)
    0x000021ee   0x000021ee   0x00000000   Code   RO         4147    .ARM.Collect$$libinit$$0000001D  c_w.l(libinit2.o)
    0x000021ee   0x000021ee   0x00000000   Code   RO         4149    .ARM.Collect$$libinit$$0000001F  c_w.l(libinit2.o)
    0x000021ee   0x000021ee   0x00000000   Code   RO         4151    .ARM.Collect$$libinit$$00000021  c_w.l(libinit2.o)
    0x000021ee   0x000021ee   0x00000000   Code   RO         4153    .ARM.Collect$$libinit$$00000023  c_w.l(libinit2.o)
    0x000021ee   0x000021ee   0x00000000   Code   RO         4155    .ARM.Collect$$libinit$$00000025  c_w.l(libinit2.o)
    0x000021ee   0x000021ee   0x00000000   Code   RO         4159    .ARM.Collect$$libinit$$0000002C  c_w.l(libinit2.o)
    0x000021ee   0x000021ee   0x00000000   Code   RO         4161    .ARM.Collect$$libinit$$0000002E  c_w.l(libinit2.o)
    0x000021ee   0x000021ee   0x00000000   Code   RO         4163    .ARM.Collect$$libinit$$00000030  c_w.l(libinit2.o)
    0x000021ee   0x000021ee   0x00000000   Code   RO         4165    .ARM.Collect$$libinit$$00000032  c_w.l(libinit2.o)
    0x000021ee   0x000021ee   0x00000002   Code   RO         4166    .ARM.Collect$$libinit$$00000033  c_w.l(libinit2.o)
    0x000021f0   0x000021f0   0x00000002   Code   RO         4213    .ARM.Collect$$libshutdown$$00000000  c_w.l(libshutdown.o)
    0x000021f2   0x000021f2   0x00000000   Code   RO         4231    .ARM.Collect$$libshutdown$$00000002  c_w.l(libshutdown2.o)
    0x000021f2   0x000021f2   0x00000000   Code   RO         4233    .ARM.Collect$$libshutdown$$00000004  c_w.l(libshutdown2.o)
    0x000021f2   0x000021f2   0x00000000   Code   RO         4236    .ARM.Collect$$libshutdown$$00000007  c_w.l(libshutdown2.o)
    0x000021f2   0x000021f2   0x00000000   Code   RO         4239    .ARM.Collect$$libshutdown$$0000000A  c_w.l(libshutdown2.o)
    0x000021f2   0x000021f2   0x00000000   Code   RO         4241    .ARM.Collect$$libshutdown$$0000000C  c_w.l(libshutdown2.o)
    0x000021f2   0x000021f2   0x00000000   Code   RO         4244    .ARM.Collect$$libshutdown$$0000000F  c_w.l(libshutdown2.o)
    0x000021f2   0x000021f2   0x00000002   Code   RO         4245    .ARM.Collect$$libshutdown$$00000010  c_w.l(libshutdown2.o)
    0x000021f4   0x000021f4   0x00000000   Code   RO         3951    .ARM.Collect$$rtentry$$00000000  c_w.l(__rtentry.o)
    0x000021f4   0x000021f4   0x00000000   Code   RO         4027    .ARM.Collect$$rtentry$$00000002  c_w.l(__rtentry2.o)
    0x000021f4   0x000021f4   0x00000006   Code   RO         4039    .ARM.Collect$$rtentry$$00000004  c_w.l(__rtentry4.o)
    0x000021fa   0x000021fa   0x00000000   Code   RO         4029    .ARM.Collect$$rtentry$$00000009  c_w.l(__rtentry2.o)
    0x000021fa   0x000021fa   0x00000004   Code   RO         4030    .ARM.Collect$$rtentry$$0000000A  c_w.l(__rtentry2.o)
    0x000021fe   0x000021fe   0x00000000   Code   RO         4032    .ARM.Collect$$rtentry$$0000000C  c_w.l(__rtentry2.o)
    0x000021fe   0x000021fe   0x00000008   Code   RO         4033    .ARM.Collect$$rtentry$$0000000D  c_w.l(__rtentry2.o)
    0x00002206   0x00002206   0x00000002   Code   RO         4167    .ARM.Collect$$rtexit$$00000000  c_w.l(rtexit.o)
    0x00002208   0x00002208   0x00000000   Code   RO         4182    .ARM.Collect$$rtexit$$00000002  c_w.l(rtexit2.o)
    0x00002208   0x00002208   0x00000004   Code   RO         4183    .ARM.Collect$$rtexit$$00000003  c_w.l(rtexit2.o)
    0x0000220c   0x0000220c   0x00000006   Code   RO         4184    .ARM.Collect$$rtexit$$00000004  c_w.l(rtexit2.o)
    0x00002212   0x00002212   0x00000002   PAD
    0x00002214   0x00002214   0x0000000e   Code   RO          308    .emb_text           peripheral.o
    0x00002222   0x00002222   0x00000002   PAD
    0x00002224   0x00002224   0x0000003c   Code   RO            4    .text               startup_lpc17xx.o
    0x00002260   0x00002260   0x00000034   Code   RO         3859    .text               c_w.l(vsnprintf.o)
    0x00002294   0x00002294   0x0000004e   Code   RO         3867    .text               c_w.l(_printf_pad.o)
    0x000022e2   0x000022e2   0x00000002   PAD
    0x000022e4   0x000022e4   0x00000078   Code   RO         3869    .text               c_w.l(_printf_dec.o)
    0x0000235c   0x0000235c   0x00000094   Code   RO         3889    .text               c_w.l(_printf_hex_int_ll_ptr.o)
    0x000023f0   0x000023f0   0x00000188   Code   RO         3909    .text               c_w.l(__printf_flags_ss_wp.o)
    0x00002578   0x00002578   0x0000001a   Code   RO         3916    .text               c_w.l(atoi.o)
    0x00002592   0x00002592   0x00000024   Code   RO         3921    .text               c_w.l(strstr.o)
    0x000025b6   0x000025b6   0x0000003e   Code   RO         3927    .text               c_w.l(strlen.o)
    0x000025f4   0x000025f4   0x00000018   Code   RO         3929    .text               c_w.l(strcat.o)
    0x0000260c   0x0000260c   0x00000044   Code   RO         3931    .text               c_w.l(rt_memclr.o)
    0x00002650   0x00002650   0x0000004e   Code   RO         3933    .text               c_w.l(rt_memclr_w.o)
    0x0000269e   0x0000269e   0x00000002   PAD
    0x000026a0   0x000026a0   0x00000080   Code   RO         3935    .text               c_w.l(strcmpv7m.o)
    0x00002720   0x00002720   0x00000006   Code   RO         3937    .text               c_w.l(heapauxi.o)
    0x00002726   0x00002726   0x00000002   PAD
    0x00002728   0x00002728   0x00000008   Code   RO         3959    .text               c_w.l(rt_errno_addr_intlibspace.o)
    0x00002730   0x00002730   0x00000024   Code   RO         3961    .text               c_w.l(_printf_truncate.o)
    0x00002754   0x00002754   0x00000052   Code   RO         3963    .text               c_w.l(_printf_str.o)
    0x000027a6   0x000027a6   0x000000b2   Code   RO         3965    .text               c_w.l(_printf_intcommon.o)
    0x00002858   0x00002858   0x00000028   Code   RO         3967    .text               c_w.l(_printf_charcount.o)
    0x00002880   0x00002880   0x0000041e   Code   RO         3969    .text               c_w.l(_printf_fp_dec.o)
    0x00002c9e   0x00002c9e   0x00000002   PAD
    0x00002ca0   0x00002ca0   0x00000030   Code   RO         3971    .text               c_w.l(_printf_char_common.o)
    0x00002cd0   0x00002cd0   0x0000000a   Code   RO         3973    .text               c_w.l(_sputc.o)
    0x00002cda   0x00002cda   0x00000010   Code   RO         3975    .text               c_w.l(_snputc.o)
    0x00002cea   0x00002cea   0x00000002   PAD
    0x00002cec   0x00002cec   0x000000bc   Code   RO         3977    .text               c_w.l(_printf_wctomb.o)
    0x00002da8   0x00002da8   0x0000007c   Code   RO         3980    .text               c_w.l(_printf_longlong_dec.o)
    0x00002e24   0x00002e24   0x00000070   Code   RO         3986    .text               c_w.l(_printf_oct_int_ll.o)
    0x00002e94   0x00002e94   0x00000070   Code   RO         4008    .text               c_w.l(strtol.o)
    0x00002f04   0x00002f04   0x00000008   Code   RO         4023    .text               c_w.l(libspace.o)
    0x00002f0c   0x00002f0c   0x00000010   Code   RO         4041    .text               c_w.l(rt_ctype_table.o)
    0x00002f1c   0x00002f1c   0x00000008   Code   RO         4048    .text               c_w.l(rt_locale_intlibspace.o)
    0x00002f24   0x00002f24   0x0000008a   Code   RO         4050    .text               c_w.l(lludiv10.o)
    0x00002fae   0x00002fae   0x00000002   PAD
    0x00002fb0   0x00002fb0   0x000002fc   Code   RO         4052    .text               c_w.l(_printf_fp_hex.o)
    0x000032ac   0x000032ac   0x00000080   Code   RO         4055    .text               c_w.l(_printf_fp_infnan.o)
    0x0000332c   0x0000332c   0x0000002c   Code   RO         4059    .text               c_w.l(_printf_char.o)
    0x00003358   0x00003358   0x0000002c   Code   RO         4061    .text               c_w.l(_printf_wchar.o)
    0x00003384   0x00003384   0x0000009e   Code   RO         4063    .text               c_w.l(_strtoul.o)
    0x00003422   0x00003422   0x00000002   PAD
    0x00003424   0x00003424   0x000000e4   Code   RO         4065    .text               c_w.l(bigflt0.o)
    0x00003508   0x00003508   0x00000040   Code   RO         4090    .text               c_w.l(_wcrtomb.o)
    0x00003548   0x00003548   0x0000004a   Code   RO         4103    .text               c_w.l(sys_stackheap_outer.o)
    0x00003592   0x00003592   0x0000001c   Code   RO         4105    .text               c_w.l(_chval.o)
    0x000035ae   0x000035ae   0x00000012   Code   RO         4110    .text               c_w.l(exit.o)
    0x000035c0   0x000035c0   0x0000000c   Code   RO         4179    .text               c_w.l(sys_exit.o)
    0x000035cc   0x000035cc   0x00000002   Code   RO         4200    .text               c_w.l(use_no_semi.o)
    0x000035ce   0x000035ce   0x00000000   Code   RO         4202    .text               c_w.l(indicate_semi.o)
    0x000035ce   0x000035ce   0x0000003e   Code   RO         4068    CL$$btod_d2e        c_w.l(btod.o)
    0x0000360c   0x0000360c   0x00000046   Code   RO         4070    CL$$btod_d2e_denorm_low  c_w.l(btod.o)
    0x00003652   0x00003652   0x00000060   Code   RO         4069    CL$$btod_d2e_norm_op1  c_w.l(btod.o)
    0x000036b2   0x000036b2   0x00000338   Code   RO         4078    CL$$btod_div_common  c_w.l(btod.o)
    0x000039ea   0x000039ea   0x000000dc   Code   RO         4075    CL$$btod_e2e        c_w.l(btod.o)
    0x00003ac6   0x00003ac6   0x0000002a   Code   RO         4072    CL$$btod_ediv       c_w.l(btod.o)
    0x00003af0   0x00003af0   0x0000002a   Code   RO         4071    CL$$btod_emul       c_w.l(btod.o)
    0x00003b1a   0x00003b1a   0x00000244   Code   RO         4077    CL$$btod_mult_common  c_w.l(btod.o)
    0x00003d5e   0x00003d5e   0x00000016   Code   RO          507    i.Button_Events     button.o
    0x00003d74   0x00003d74   0x00000044   Code   RO          508    i.Button_Fsm        button.o
    0x00003db8   0x00003db8   0x00000098   Code   RO         1066    i.Button_Handler    handlers.o
    0x00003e50   0x00003e50   0x00000016   Code   RO          509    i.Button_Init       button.o
    0x00003e66   0x00003e66   0x00000002   PAD
    0x00003e68   0x00003e68   0x0000000c   Code   RO         3264    i.CDC_BulkIn        cdcuser.o
    0x00003e74   0x00003e74   0x0000001c   Code   RO         3265    i.CDC_BulkOut       cdcuser.o
    0x00003e90   0x00003e90   0x00000006   Code   RO         3266    i.CDC_ClearCommFeature  cdcuser.o
    0x00003e96   0x00003e96   0x00000006   Code   RO         3267    i.CDC_GetCommFeature  cdcuser.o
    0x00003e9c   0x00003e9c   0x00000004   Code   RO         3268    i.CDC_GetEncapsulatedResponse  cdcuser.o
    0x00003ea0   0x00003ea0   0x00000040   Code   RO         3269    i.CDC_GetLineCoding  cdcuser.o
    0x00003ee0   0x00003ee0   0x0000008c   Code   RO         3270    i.CDC_GetSerialState  cdcuser.o
    0x00003f6c   0x00003f6c   0x00000040   Code   RO         3272    i.CDC_NotificationIn  cdcuser.o
    0x00003fac   0x00003fac   0x00000006   Code   RO         3275    i.CDC_SendBreak     cdcuser.o
    0x00003fb2   0x00003fb2   0x00000004   Code   RO         3276    i.CDC_SendEncapsulatedCommand  cdcuser.o
    0x00003fb6   0x00003fb6   0x00000006   Code   RO         3277    i.CDC_SetCommFeature  cdcuser.o
    0x00003fbc   0x00003fbc   0x00000006   Code   RO         3278    i.CDC_SetControlLineState  cdcuser.o
    0x00003fc2   0x00003fc2   0x00000004   Code   RO         3279    i.CDC_SetLineCoding  cdcuser.o
    0x00003fc6   0x00003fc6   0x00000002   PAD
    0x00003fc8   0x00003fc8   0x0000001c   Code   RO         3280    i.CDC_WrOutBuf      cdcuser.o
    0x00003fe4   0x00003fe4   0x00000038   Code   RO         1389    i.CLKPWR_ConfigPPWR  lpc17xx_clkpwr.o
    0x0000401c   0x0000401c   0x00000068   Code   RO         1395    i.CLKPWR_SetPCLKDiv  lpc17xx_clkpwr.o
    0x00004084   0x00004084   0x00000008   Code   RO          443    i.Config            user.o
    0x0000408c   0x0000408c   0x0000002c   Code   RO           61    i.EINT3_IRQHandler  lpc17xx_it.o
    0x000040b8   0x000040b8   0x00000010   Code   RO         3487    i.EPAdr             usbhw.o
    0x000040c8   0x000040c8   0x00000010   Code   RO         1651    i.EXTI_ClearEXTIFlag  lpc17xx_exti.o
    0x000040d8   0x000040d8   0x0000002e   Code   RO          615    i.Fifo_Init         fifo.o
    0x00004106   0x00004106   0x00000016   Code   RO          616    i.Fifo_OnInactive   fifo.o
    0x0000411c   0x0000411c   0x00000054   Code   RO          617    i.Fifo_Read         fifo.o
    0x00004170   0x00004170   0x0000007a   Code   RO          618    i.Fifo_Write        fifo.o
    0x000041ea   0x000041ea   0x00000002   PAD
    0x000041ec   0x000041ec   0x00000100   Code   RO         3238    i.GPIO_Init         lpc17xx_gpio.o
    0x000042ec   0x000042ec   0x00000098   Code   RO          311    i.IO_Config         peripheral.o
    0x00004384   0x00004384   0x00000044   Code   RO         1097    i.IO_Events         dev.o
    0x000043c8   0x000043c8   0x00000028   Code   RO         1098    i.IO_Init           dev.o
    0x000043f0   0x000043f0   0x0000000c   Code   RO          444    i.Loop              user.o
    0x000043fc   0x000043fc   0x00000028   Code   RO          313    i.NVIC_Config       peripheral.o
    0x00004424   0x00004424   0x00000080   Code   RO         2219    i.NVIC_Init         lpc17xx_nvic.o
    0x000044a4   0x000044a4   0x0000007c   Code   RO           62    i.PWM1_IRQHandler   lpc17xx_it.o
    0x00004520   0x00004520   0x0000009c   Code   RO         2256    i.PWM_ChannelCmd    lpc17xx_pwm.o
    0x000045bc   0x000045bc   0x000000a0   Code   RO         2257    i.PWM_ChannelConfig  lpc17xx_pwm.o
    0x0000465c   0x0000465c   0x00000078   Code   RO         2258    i.PWM_ClearIntPending  lpc17xx_pwm.o
    0x000046d4   0x000046d4   0x00000068   Code   RO         2259    i.PWM_Cmd           lpc17xx_pwm.o
    0x0000473c   0x0000473c   0x00000140   Code   RO          314    i.PWM_Config        peripheral.o
    0x0000487c   0x0000487c   0x00000144   Code   RO         2261    i.PWM_ConfigMatch   lpc17xx_pwm.o
    0x000049c0   0x000049c0   0x00000068   Code   RO         2263    i.PWM_CounterCmd    lpc17xx_pwm.o
    0x00004a28   0x00004a28   0x00000080   Code   RO         2266    i.PWM_GetIntStatus  lpc17xx_pwm.o
    0x00004aa8   0x00004aa8   0x000000c0   Code   RO         2267    i.PWM_Init          lpc17xx_pwm.o
    0x00004b68   0x00004b68   0x000000c0   Code   RO         2268    i.PWM_MatchUpdate   lpc17xx_pwm.o
    0x00004c28   0x00004c28   0x00000050   Code   RO         2270    i.PWM_ResetCounter  lpc17xx_pwm.o
    0x00004c78   0x00004c78   0x00000018   Code   RO          315    i.Peripheral        peripheral.o
    0x00004c90   0x00004c90   0x00000030   Code   RO         3488    i.RdCmdDat          usbhw.o
    0x00004cc0   0x00004cc0   0x0000003a   Code   RO          793    i.Serial_Events     serial.o
    0x00004cfa   0x00004cfa   0x00000002   PAD
    0x00004cfc   0x00004cfc   0x0000001c   Code   RO           63    i.SysTick_Handler   lpc17xx_it.o
    0x00004d18   0x00004d18   0x00000140   Code   RO           13    i.SystemInit        system_lpc17xx.o
    0x00004e58   0x00004e58   0x0000000c   Code   RO          905    i.SystemTime_GetTime  sytemtime.o
    0x00004e64   0x00004e64   0x00000010   Code   RO          907    i.SystemTime_Timer  sytemtime.o
    0x00004e74   0x00004e74   0x0000005c   Code   RO          317    i.Systick_Config    peripheral.o
    0x00004ed0   0x00004ed0   0x0000001a   Code   RO           64    i.TIMER0_IRQHandler  lpc17xx_it.o
    0x00004eea   0x00004eea   0x00000008   Code   RO         2909    i.TIM_ClearIntPending  lpc17xx_timer.o
    0x00004ef2   0x00004ef2   0x00000010   Code   RO         2915    i.TIM_GetIntStatus  lpc17xx_timer.o
    0x00004f02   0x00004f02   0x00000026   Code   RO          946    i.Timer_Elapsed     timer.o
    0x00004f28   0x00004f28   0x00000034   Code   RO          949    i.Timer_GetTime     timer.o
    0x00004f5c   0x00004f5c   0x0000000a   Code   RO          950    i.Timer_Init        timer.o
    0x00004f66   0x00004f66   0x00000010   Code   RO          952    i.Timer_Start       timer.o
    0x00004f76   0x00004f76   0x00000006   Code   RO          953    i.Timer_Stop        timer.o
    0x00004f7c   0x00004f7c   0x0000002c   Code   RO           65    i.UART0_IRQHandler  lpc17xx_it.o
    0x00004fa8   0x00004fa8   0x000000b8   Code   RO         3777    i.UART1_IRQHandler  uart.o
    0x00005060   0x00005060   0x00000068   Code   RO         2999    i.UART_GetIntId     lpc17xx_uart.o
    0x000050c8   0x000050c8   0x0000006c   Code   RO         3000    i.UART_GetLineStatus  lpc17xx_uart.o
    0x00005134   0x00005134   0x00000020   Code   RO         3490    i.USB_ClrStallEP    usbhw.o
    0x00005154   0x00005154   0x00000040   Code   RO          320    i.USB_Config        peripheral.o
    0x00005194   0x00005194   0x0000004c   Code   RO         3491    i.USB_ConfigEP      usbhw.o
    0x000051e0   0x000051e0   0x00000044   Code   RO         3492    i.USB_Configure     usbhw.o
    0x00005224   0x00005224   0x00000002   Code   RO         3658    i.USB_Configure_Event  usbuser.o
    0x00005226   0x00005226   0x00000002   PAD
    0x00005228   0x00005228   0x00000020   Code   RO         3493    i.USB_Connect       usbhw.o
    0x00005248   0x00005248   0x00000038   Code   RO         3386    i.USB_DataInStage   usbcore.o
    0x00005280   0x00005280   0x00000028   Code   RO         3387    i.USB_DataOutStage  usbcore.o
    0x000052a8   0x000052a8   0x00000002   Code   RO         3494    i.USB_DirCtrlEP     usbhw.o
    0x000052aa   0x000052aa   0x00000002   PAD
    0x000052ac   0x000052ac   0x00000024   Code   RO         3495    i.USB_DisableEP     usbhw.o
    0x000052d0   0x000052d0   0x00000038   Code   RO          321    i.USB_Disconnect    peripheral.o
    0x00005308   0x00005308   0x00000020   Code   RO         3496    i.USB_EnableEP      usbhw.o
    0x00005328   0x00005328   0x0000036c   Code   RO         3388    i.USB_EndPoint0     usbcore.o
    0x00005694   0x00005694   0x00000028   Code   RO         3659    i.USB_EndPoint1     usbuser.o
    0x000056bc   0x000056bc   0x0000001e   Code   RO         3666    i.USB_EndPoint2     usbuser.o
    0x000056da   0x000056da   0x00000002   PAD
    0x000056dc   0x000056dc   0x00000010   Code   RO         1099    i.USB_Event         dev.o
    0x000056ec   0x000056ec   0x0000001c   Code   RO         1100    i.USB_Handler_Init  dev.o
    0x00005708   0x00005708   0x00000104   Code   RO         3498    i.USB_IRQHandler    usbhw.o
    0x0000580c   0x0000580c   0x0000008c   Code   RO         3499    i.USB_Init          usbhw.o
    0x00005898   0x00005898   0x0000006c   Code   RO         3500    i.USB_ReadEP        usbhw.o
    0x00005904   0x00005904   0x000000b4   Code   RO         1067    i.USB_Receiver_Handler  handlers.o
    0x000059b8   0x000059b8   0x000000b8   Code   RO         3389    i.USB_ReqGetDescriptor  usbcore.o
    0x00005a70   0x00005a70   0x000000d4   Code   RO         3390    i.USB_ReqGetStatus  usbcore.o
    0x00005b44   0x00005b44   0x000000ec   Code   RO         3391    i.USB_ReqSetClrFeature  usbcore.o
    0x00005c30   0x00005c30   0x000001c0   Code   RO         3392    i.USB_ReqSetConfiguration  usbcore.o
    0x00005df0   0x00005df0   0x00000144   Code   RO         3393    i.USB_ReqSetInterface  usbcore.o
    0x00005f34   0x00005f34   0x00000054   Code   RO         3501    i.USB_Reset         usbhw.o
    0x00005f88   0x00005f88   0x0000003c   Code   RO         3394    i.USB_ResetCore     usbcore.o
    0x00005fc4   0x00005fc4   0x00000020   Code   RO         3502    i.USB_ResetEP       usbhw.o
    0x00005fe4   0x00005fe4   0x00000008   Code   RO         3674    i.USB_Reset_Event   usbuser.o
    0x00005fec   0x00005fec   0x00000002   Code   RO         3503    i.USB_Resume        usbhw.o
    0x00005fee   0x00005fee   0x00000002   PAD
    0x00005ff0   0x00005ff0   0x00000030   Code   RO         3504    i.USB_SetAddress    usbhw.o
    0x00006020   0x00006020   0x00000024   Code   RO         3505    i.USB_SetStallEP    usbhw.o
    0x00006044   0x00006044   0x00000010   Code   RO         3395    i.USB_SetupStage    usbcore.o
    0x00006054   0x00006054   0x0000000e   Code   RO         3396    i.USB_StatusInStage  usbcore.o
    0x00006062   0x00006062   0x00000002   PAD
    0x00006064   0x00006064   0x00000010   Code   RO         3397    i.USB_StatusOutStage  usbcore.o
    0x00006074   0x00006074   0x00000002   Code   RO         3506    i.USB_Suspend       usbhw.o
    0x00006076   0x00006076   0x00000002   PAD
    0x00006078   0x00006078   0x0000004c   Code   RO          323    i.USB_Trace         peripheral.o
    0x000060c4   0x000060c4   0x0000006c   Code   RO          324    i.USB_Transmit      peripheral.o
    0x00006130   0x00006130   0x00000002   Code   RO         3508    i.USB_WakeUpCfg     usbhw.o
    0x00006132   0x00006132   0x00000002   PAD
    0x00006134   0x00006134   0x00000054   Code   RO         3509    i.USB_WriteEP       usbhw.o
    0x00006188   0x00006188   0x0000000c   Code   RO          445    i.Variables         user.o
    0x00006194   0x00006194   0x00000028   Code   RO         3510    i.WrCmd             usbhw.o
    0x000061bc   0x000061bc   0x00000044   Code   RO         3511    i.WrCmdDat          usbhw.o
    0x00006200   0x00006200   0x00000058   Code   RO         3512    i.WrCmdEP           usbhw.o
    0x00006258   0x00006258   0x00000028   Code   RO         4101    i.__ARM_fpclassify  m_ws.l(fpclassify.o)
    0x00006280   0x00006280   0x0000000e   Code   RO         3902    i._is_digit         c_w.l(__printf_wp.o)
    0x0000628e   0x0000628e   0x00000004   Code   RO         2271    i.check_failed      lpc17xx_pwm.o
    0x00006292   0x00006292   0x00000004   Code   RO         3016    i.check_failed      lpc17xx_uart.o
    0x00006296   0x00006296   0x00000010   Code   RO          288    i.main              main.o
    0x000062a6   0x000062a6   0x00000002   PAD
    0x000062a8   0x000062a8   0x0000002c   Code   RO         4093    locale$$code        c_w.l(lc_numeric_c.o)
    0x000062d4   0x000062d4   0x0000002c   Code   RO         4108    locale$$code        c_w.l(lc_ctype_c.o)
    0x00006300   0x00006300   0x0000000c   Code   RO         4012    x$fpl$dretinf       fz_ws.l(dretinf.o)
    0x0000630c   0x0000630c   0x00000056   Code   RO         3941    x$fpl$f2d           fz_ws.l(f2d.o)
    0x00006362   0x00006362   0x00000002   PAD
    0x00006364   0x00006364   0x00000026   Code   RO         3943    x$fpl$ffltu         fz_ws.l(fflt_clz.o)
    0x0000638a   0x0000638a   0x0000008c   Code   RO         4014    x$fpl$fnaninf       fz_ws.l(fnaninf.o)
    0x00006416   0x00006416   0x00000004   Code   RO         3949    x$fpl$printf1       fz_ws.l(printf1.o)
    0x0000641a   0x0000641a   0x00000004   Code   RO         4016    x$fpl$printf2       fz_ws.l(printf2.o)
    0x0000641e   0x0000641e   0x00000000   Code   RO         4022    x$fpl$usenofp       fz_ws.l(usenofp.o)
    0x0000641e   0x0000641e   0x000000be   Data   RO         3473    .constdata          usbdesc.o
    0x000064dc   0x000064dc   0x00000040   Data   RO         3675    .constdata          usbuser.o
    0x0000651c   0x0000651c   0x00000028   Data   RO         3890    .constdata          c_w.l(_printf_hex_int_ll_ptr.o)
    0x00006544   0x00006544   0x00000011   Data   RO         3910    .constdata          c_w.l(__printf_flags_ss_wp.o)
    0x00006555   0x00006555   0x00000003   PAD
    0x00006558   0x00006558   0x00000008   Data   RO         3978    .constdata          c_w.l(_printf_wctomb.o)
    0x00006560   0x00006560   0x00000026   Data   RO         4053    .constdata          c_w.l(_printf_fp_hex.o)
    0x00006586   0x00006586   0x00000002   PAD
    0x00006588   0x00006588   0x00000094   Data   RO         4066    .constdata          c_w.l(bigflt0.o)
    0x0000661c   0x0000661c   0x00000020   Data   RO         4246    Region$$Table       anon$$obj.o
    0x0000663c   0x0000663c   0x0000001c   Data   RO         4092    locale$$data        c_w.l(lc_numeric_c.o)
    0x00006658   0x00006658   0x00000110   Data   RO         4107    locale$$data        c_w.l(lc_ctype_c.o)


    Execution Region RW_IRAM1 (Exec base: 0x10000000, Load base: 0x00006768, Size: 0x00001338, Max: 0x00008000, ABSOLUTE)

    Exec Addr    Load Addr    Size         Type   Attr      Idx    E Section Name        Object

    0x10000000   0x00006768   0x00000050   Data   RW           66    .data               lpc17xx_it.o
    0x10000050   0x000067b8   0x00000004   Data   RW          327    .data               peripheral.o
    0x10000054   0x000067bc   0x00000004   Data   RW          909    .data               sytemtime.o
    0x10000058   0x000067c0   0x00000020   Data   RW         1068    .data               handlers.o
    0x10000078   0x000067e0   0x0000000c   Data   RW         3282    .data               cdcuser.o
    0x10000084   0x000067ec   0x00000030   Data   RW         3398    .data               usbcore.o
    0x100000b4   0x0000681c   0x00000002   Data   RW         3676    .data               usbuser.o
    0x100000b6   0x0000681e   0x00000002   PAD
    0x100000b8   0x00006820   0x00000006   Data   RW         3787    .data               uart.o
    0x100000be   0x00006826   0x00000002   PAD
    0x100000c0        -       0x000007d0   Zero   RW          326    .bss                peripheral.o
    0x10000890        -       0x00000464   Zero   RW         1101    .bss                dev.o
    0x10000cf4        -       0x000000d4   Zero   RW         3281    .bss                cdcuser.o
    0x10000dc8        -       0x00000110   Zero   RW         3786    .bss                uart.o
    0x10000ed8        -       0x00000060   Zero   RW         4024    .bss                c_w.l(libspace.o)
    0x10000f38        -       0x00000000   Zero   RW            2    HEAP                startup_lpc17xx.o
    0x10000f38        -       0x00000400   Zero   RW            1    STACK               startup_lpc17xx.o


==============================================================================

Image component sizes


      Code (inc. data)   RO Data    RW Data    ZI Data      Debug   Object Name

       112          0          0          0          0       1911   button.o
       378         40          0         12        212       8698   cdcuser.o
       152         40          0          0       1124       1882   dev.o
       274          0          0          0          0       2927   fifo.o
       332         76          0         32          0       1694   handlers.o
         0          0          0          0          0       1368   lpc17xx_adc.o
       160         20          0          0          0       1144   lpc17xx_clkpwr.o
        16          6          0          0          0        469   lpc17xx_exti.o
       256          6          0          0          0        876   lpc17xx_gpio.o
       266         26          0         80          0      25974   lpc17xx_it.o
       128         14          0          0          0        972   lpc17xx_nvic.o
      1564        422          0          0          0      10919   lpc17xx_pwm.o
        24          0          0          0          0       1413   lpc17xx_timer.o
       216        108          0          0          0      10789   lpc17xx_uart.o
        16          0          0          0          0        399   main.o
       946         74          0          4       2000      30405   peripheral.o
        58          0          0          0          0        908   serial.o
        60         22        204          0       1024        780   startup_lpc17xx.o
       320         18          0          0          0      21717   system_lpc17xx.o
        28         10          0          4          0       1085   sytemtime.o
       122          0          0          0          0       2940   timer.o
       184         20          0          6        272       1896   uart.o
      2482        234          0         48          0       9698   usbcore.o
         0          0        190          0          0        745   usbdesc.o
      1336        178          0          0          0      12147   usbhw.o
        80          4         64          2          0       2623   usbuser.o
        32          0          0          0          0       1164   user.o

    ----------------------------------------------------------------------
      9568       1318        490        192       4632     157543   Object Totals
         0          0         32          0          0          0   (incl. Generated)
        26          0          0          4          0          0   (incl. Padding)

    ----------------------------------------------------------------------

      Code (inc. data)   RO Data    RW Data    ZI Data      Debug   Library Member Name

         8          0          0          0          0         68   __main.o
       392          4         17          0          0         92   __printf_flags_ss_wp.o
        14          0          0          0          0         68   __printf_wp.o
         0          0          0          0          0          0   __rtentry.o
        12          0          0          0          0          0   __rtentry2.o
         6          0          0          0          0          0   __rtentry4.o
        52          8          0          0          0          0   __scatter.o
        26          0          0          0          0          0   __scatter_copy.o
        28          0          0          0          0          0   __scatter_zi.o
        28          0          0          0          0         68   _chval.o
         6          0          0          0          0          0   _printf_a.o
         6          0          0          0          0          0   _printf_c.o
        44          0          0          0          0        108   _printf_char.o
        48          6          0          0          0         96   _printf_char_common.o
        40          0          0          0          0         68   _printf_charcount.o
         6          0          0          0          0          0   _printf_d.o
       120         16          0          0          0         92   _printf_dec.o
         6          0          0          0          0          0   _printf_e.o
         6          0          0          0          0          0   _printf_f.o
      1054          0          0          0          0        216   _printf_fp_dec.o
       764          8         38          0          0        100   _printf_fp_hex.o
       128         16          0          0          0         84   _printf_fp_infnan.o
         6          0          0          0          0          0   _printf_g.o
       148          4         40          0          0        160   _printf_hex_int_ll_ptr.o
         6          0          0          0          0          0   _printf_i.o
       178          0          0          0          0         88   _printf_intcommon.o
        10          0          0          0          0          0   _printf_l.o
         6          0          0          0          0          0   _printf_lc.o
        10          0          0          0          0          0   _printf_ll.o
         6          0          0          0          0          0   _printf_lld.o
         6          0          0          0          0          0   _printf_lli.o
         6          0          0          0          0          0   _printf_llo.o
         6          0          0          0          0          0   _printf_llu.o
         6          0          0          0          0          0   _printf_llx.o
       124         16          0          0          0         92   _printf_longlong_dec.o
         6          0          0          0          0          0   _printf_ls.o
         6          0          0          0          0          0   _printf_n.o
         6          0          0          0          0          0   _printf_o.o
       112         10          0          0          0        124   _printf_oct_int_ll.o
         6          0          0          0          0          0   _printf_p.o
        78          0          0          0          0        108   _printf_pad.o
         0          0          0          0          0          0   _printf_percent.o
         4          0          0          0          0          0   _printf_percent_end.o
         6          0          0          0          0          0   _printf_s.o
        82          0          0          0          0         80   _printf_str.o
        36          0          0          0          0         84   _printf_truncate.o
         6          0          0          0          0          0   _printf_u.o
        44          0          0          0          0        108   _printf_wchar.o
       188          6          8          0          0         92   _printf_wctomb.o
         6          0          0          0          0          0   _printf_x.o
        16          0          0          0          0         68   _snputc.o
        10          0          0          0          0         68   _sputc.o
       158          0          0          0          0         92   _strtoul.o
        64          0          0          0          0         92   _wcrtomb.o
        26          0          0          0          0         80   atoi.o
       228          4        148          0          0         96   bigflt0.o
      1936        128          0          0          0        672   btod.o
        18          0          0          0          0         80   exit.o
         6          0          0          0          0        152   heapauxi.o
         0          0          0          0          0          0   indicate_semi.o
        44         10        272          0          0         76   lc_ctype_c.o
        44         10         28          0          0         76   lc_numeric_c.o
         2          0          0          0          0          0   libinit.o
        30          0          0          0          0          0   libinit2.o
         2          0          0          0          0          0   libshutdown.o
         2          0          0          0          0          0   libshutdown2.o
         8          4          0          0         96         68   libspace.o
       138          0          0          0          0         80   lludiv10.o
        16          4          0          0          0         76   rt_ctype_table.o
         8          4          0          0          0         68   rt_errno_addr_intlibspace.o
         8          4          0          0          0         68   rt_locale_intlibspace.o
        68          0          0          0          0         68   rt_memclr.o
        78          0          0          0          0         80   rt_memclr_w.o
         2          0          0          0          0          0   rtexit.o
        10          0          0          0          0          0   rtexit2.o
        24          0          0          0          0         68   strcat.o
       128          0          0          0          0         68   strcmpv7m.o
        62          0          0          0          0         76   strlen.o
        36          0          0          0          0         80   strstr.o
       112          0          0          0          0         88   strtol.o
        12          4          0          0          0         68   sys_exit.o
        74          0          0          0          0         80   sys_stackheap_outer.o
         2          0          0          0          0         68   use_no_semi.o
        52          4          0          0          0         80   vsnprintf.o
        12          0          0          0          0         68   dretinf.o
        86          4          0          0          0         84   f2d.o
        38          0          0          0          0         68   fflt_clz.o
       140          4          0          0          0         84   fnaninf.o
         4          0          0          0          0         68   printf1.o
         4          0          0          0          0         68   printf2.o
         0          0          0          0          0          0   usenofp.o
        40          0          0          0          0         68   fpclassify.o

    ----------------------------------------------------------------------
      7666        278        556          0         96       5240   Library Totals
        20          0          5          0          0          0   (incl. Padding)

    ----------------------------------------------------------------------

      Code (inc. data)   RO Data    RW Data    ZI Data      Debug   Library Name

      7322        270        551          0         96       4732   c_w.l
       284          8          0          0          0        440   fz_ws.l
        40          0          0          0          0         68   m_ws.l

    ----------------------------------------------------------------------
      7666        278        556          0         96       5240   Library Totals

    ----------------------------------------------------------------------

==============================================================================


      Code (inc. data)   RO Data    RW Data    ZI Data      Debug   

     17234       1596       1046        192       4728     154043   Grand Totals
     17234       1596       1046        192       4728     154043   ELF Image Totals
     17234       1596       1046        192          0          0   ROM Totals

==============================================================================

    Total RO  Size (Code + RO Data)                18280 (  17.85kB)
    Total RW  Size (RW Data + ZI Data)              4920 (   4.80kB)
    Total ROM Size (Code + RO Data + RW Data)      18472 (  18.04kB)

==============================================================================

